	.section	__TEXT,__text,regular,pure_instructions
	.build_version macos, 12, 0	sdk_version 12, 3
	.section	__TEXT,__StaticInit,regular,pure_instructions
	.p2align	2                               ; -- Begin function __cxx_global_var_init
___cxx_global_var_init:                 ; @__cxx_global_var_init
	.cfi_startproc
; %bb.0:
	sub	sp, sp, #32
	stp	x29, x30, [sp, #16]             ; 16-byte Folded Spill
	add	x29, sp, #16
	.cfi_def_cfa w29, 16
	.cfi_offset w30, -8
	.cfi_offset w29, -16
	adrp	x0, _harimau@PAGE
	add	x0, x0, _harimau@PAGEOFF
	str	x0, [sp, #8]                    ; 8-byte Folded Spill
	bl	__ZN7MonsterC1Ev
	ldr	x1, [sp, #8]                    ; 8-byte Folded Reload
	adrp	x0, __ZN7MonsterD1Ev@GOTPAGE
	ldr	x0, [x0, __ZN7MonsterD1Ev@GOTPAGEOFF]
	adrp	x2, ___dso_handle@PAGE
	add	x2, x2, ___dso_handle@PAGEOFF
	bl	___cxa_atexit
	ldp	x29, x30, [sp, #16]             ; 16-byte Folded Reload
	add	sp, sp, #32
	ret
	.cfi_endproc
                                        ; -- End function
	.section	__TEXT,__text,regular,pure_instructions
	.globl	__ZN7MonsterC1Ev                ; -- Begin function _ZN7MonsterC1Ev
	.weak_def_can_be_hidden	__ZN7MonsterC1Ev
	.p2align	2
__ZN7MonsterC1Ev:                       ; @_ZN7MonsterC1Ev
	.cfi_startproc
; %bb.0:
	sub	sp, sp, #32
	stp	x29, x30, [sp, #16]             ; 16-byte Folded Spill
	add	x29, sp, #16
	.cfi_def_cfa w29, 16
	.cfi_offset w30, -8
	.cfi_offset w29, -16
	str	x0, [sp, #8]
	ldr	x0, [sp, #8]
	str	x0, [sp]                        ; 8-byte Folded Spill
	bl	__ZN7MonsterC2Ev
	ldr	x0, [sp]                        ; 8-byte Folded Reload
	ldp	x29, x30, [sp, #16]             ; 16-byte Folded Reload
	add	sp, sp, #32
	ret
	.cfi_endproc
                                        ; -- End function
	.globl	__ZN7MonsterD1Ev                ; -- Begin function _ZN7MonsterD1Ev
	.weak_def_can_be_hidden	__ZN7MonsterD1Ev
	.p2align	2
__ZN7MonsterD1Ev:                       ; @_ZN7MonsterD1Ev
	.cfi_startproc
; %bb.0:
	sub	sp, sp, #32
	stp	x29, x30, [sp, #16]             ; 16-byte Folded Spill
	add	x29, sp, #16
	.cfi_def_cfa w29, 16
	.cfi_offset w30, -8
	.cfi_offset w29, -16
	str	x0, [sp, #8]
	ldr	x0, [sp, #8]
	str	x0, [sp]                        ; 8-byte Folded Spill
	bl	__ZN7MonsterD2Ev
	ldr	x0, [sp]                        ; 8-byte Folded Reload
	ldp	x29, x30, [sp, #16]             ; 16-byte Folded Reload
	add	sp, sp, #32
	ret
	.cfi_endproc
                                        ; -- End function
	.globl	_main                           ; -- Begin function main
	.p2align	2
_main:                                  ; @main
Lfunc_begin0:
	.cfi_startproc
	.cfi_personality 155, ___gxx_personality_v0
	.cfi_lsda 16, Lexception0
; %bb.0:
	sub	sp, sp, #288
	stp	x28, x27, [sp, #256]            ; 16-byte Folded Spill
	stp	x29, x30, [sp, #272]            ; 16-byte Folded Spill
	add	x29, sp, #272
	.cfi_def_cfa w29, 16
	.cfi_offset w30, -8
	.cfi_offset w29, -16
	.cfi_offset w27, -24
	.cfi_offset w28, -32
	adrp	x8, _harimau@PAGE
	add	x8, x8, _harimau@PAGEOFF
	stur	x8, [x29, #-112]                ; 8-byte Folded Spill
	adrp	x8, __ZNSt3__14coutE@GOTPAGE
	ldr	x8, [x8, __ZNSt3__14coutE@GOTPAGEOFF]
	stur	x8, [x29, #-104]                ; 8-byte Folded Spill
	adrp	x8, __ZNSt3__14endlIcNS_11char_traitsIcEEEERNS_13basic_ostreamIT_T0_EES7_@GOTPAGE
	ldr	x8, [x8, __ZNSt3__14endlIcNS_11char_traitsIcEEEERNS_13basic_ostreamIT_T0_EES7_@GOTPAGEOFF]
	stur	x8, [x29, #-96]                 ; 8-byte Folded Spill
	stur	wzr, [x29, #-20]
	sub	x0, x29, #64
	stur	x0, [x29, #-88]                 ; 8-byte Folded Spill
	bl	__ZN7MonsterC1Ev
	ldur	x0, [x29, #-88]                 ; 8-byte Folded Reload
Ltmp0:
	adrp	x1, l_.str@PAGE
	add	x1, x1, l_.str@PAGEOFF
	bl	__ZNSt3__112basic_stringIcNS_11char_traitsIcEENS_9allocatorIcEEEaSEPKc
Ltmp1:
	b	LBB3_1
LBB3_1:
	mov	w8, #10
	stur	w8, [x29, #-40]
	mov	w8, #3500
	stur	w8, [x29, #-36]
	mov	w8, #500
	stur	w8, [x29, #-32]
Ltmp2:
	adrp	x0, _harimau@PAGE
	add	x0, x0, _harimau@PAGEOFF
	adrp	x1, l_.str.1@PAGE
	add	x1, x1, l_.str.1@PAGEOFF
	bl	__ZNSt3__112basic_stringIcNS_11char_traitsIcEENS_9allocatorIcEEEaSEPKc
Ltmp3:
	b	LBB3_2
LBB3_2:
	ldur	x0, [x29, #-104]                ; 8-byte Folded Reload
	ldur	x9, [x29, #-112]                ; 8-byte Folded Reload
	mov	w8, #20
	str	w8, [x9, #24]
	mov	w8, #5000
	str	w8, [x9, #28]
	mov	w8, #1000
	str	w8, [x9, #32]
Ltmp4:
	adrp	x1, l_.str.2@PAGE
	add	x1, x1, l_.str.2@PAGEOFF
	bl	__ZNSt3__1lsINS_11char_traitsIcEEEERNS_13basic_ostreamIcT_EES6_PKc
	stur	x0, [x29, #-120]                ; 8-byte Folded Spill
Ltmp5:
	b	LBB3_3
LBB3_3:
Ltmp6:
	ldur	x1, [x29, #-96]                 ; 8-byte Folded Reload
	ldur	x0, [x29, #-120]                ; 8-byte Folded Reload
	bl	__ZNSt3__113basic_ostreamIcNS_11char_traitsIcEEElsEPFRS3_S4_E
Ltmp7:
	b	LBB3_4
LBB3_4:
Ltmp8:
	ldur	x0, [x29, #-104]                ; 8-byte Folded Reload
	adrp	x1, l_.str.3@PAGE
	add	x1, x1, l_.str.3@PAGEOFF
	bl	__ZNSt3__1lsINS_11char_traitsIcEEEERNS_13basic_ostreamIcT_EES6_PKc
	stur	x0, [x29, #-128]                ; 8-byte Folded Spill
Ltmp9:
	b	LBB3_5
LBB3_5:
Ltmp10:
	ldur	x0, [x29, #-128]                ; 8-byte Folded Reload
	sub	x1, x29, #64
	bl	__ZNSt3__1lsIcNS_11char_traitsIcEENS_9allocatorIcEEEERNS_13basic_ostreamIT_T0_EES9_RKNS_12basic_stringIS6_S7_T1_EE
	str	x0, [sp, #136]                  ; 8-byte Folded Spill
Ltmp11:
	b	LBB3_6
LBB3_6:
Ltmp12:
	ldur	x1, [x29, #-96]                 ; 8-byte Folded Reload
	ldr	x0, [sp, #136]                  ; 8-byte Folded Reload
	bl	__ZNSt3__113basic_ostreamIcNS_11char_traitsIcEEElsEPFRS3_S4_E
Ltmp13:
	b	LBB3_7
LBB3_7:
Ltmp14:
	ldur	x0, [x29, #-104]                ; 8-byte Folded Reload
	adrp	x1, l_.str.4@PAGE
	add	x1, x1, l_.str.4@PAGEOFF
	bl	__ZNSt3__1lsINS_11char_traitsIcEEEERNS_13basic_ostreamIcT_EES6_PKc
	str	x0, [sp, #128]                  ; 8-byte Folded Spill
Ltmp15:
	b	LBB3_8
LBB3_8:
	ldr	x0, [sp, #128]                  ; 8-byte Folded Reload
	ldur	w1, [x29, #-40]
Ltmp16:
	bl	__ZNSt3__113basic_ostreamIcNS_11char_traitsIcEEElsEi
	str	x0, [sp, #120]                  ; 8-byte Folded Spill
Ltmp17:
	b	LBB3_9
LBB3_9:
Ltmp18:
	ldur	x1, [x29, #-96]                 ; 8-byte Folded Reload
	ldr	x0, [sp, #120]                  ; 8-byte Folded Reload
	bl	__ZNSt3__113basic_ostreamIcNS_11char_traitsIcEEElsEPFRS3_S4_E
Ltmp19:
	b	LBB3_10
LBB3_10:
Ltmp20:
	ldur	x0, [x29, #-104]                ; 8-byte Folded Reload
	adrp	x1, l_.str.5@PAGE
	add	x1, x1, l_.str.5@PAGEOFF
	bl	__ZNSt3__1lsINS_11char_traitsIcEEEERNS_13basic_ostreamIcT_EES6_PKc
	str	x0, [sp, #112]                  ; 8-byte Folded Spill
Ltmp21:
	b	LBB3_11
LBB3_11:
	ldr	x0, [sp, #112]                  ; 8-byte Folded Reload
	ldur	w1, [x29, #-36]
Ltmp22:
	bl	__ZNSt3__113basic_ostreamIcNS_11char_traitsIcEEElsEi
	str	x0, [sp, #104]                  ; 8-byte Folded Spill
Ltmp23:
	b	LBB3_12
LBB3_12:
Ltmp24:
	ldur	x1, [x29, #-96]                 ; 8-byte Folded Reload
	ldr	x0, [sp, #104]                  ; 8-byte Folded Reload
	bl	__ZNSt3__113basic_ostreamIcNS_11char_traitsIcEEElsEPFRS3_S4_E
Ltmp25:
	b	LBB3_13
LBB3_13:
Ltmp26:
	ldur	x0, [x29, #-104]                ; 8-byte Folded Reload
	adrp	x1, l_.str.6@PAGE
	add	x1, x1, l_.str.6@PAGEOFF
	bl	__ZNSt3__1lsINS_11char_traitsIcEEEERNS_13basic_ostreamIcT_EES6_PKc
	str	x0, [sp, #96]                   ; 8-byte Folded Spill
Ltmp27:
	b	LBB3_14
LBB3_14:
	ldr	x0, [sp, #96]                   ; 8-byte Folded Reload
	ldur	w1, [x29, #-32]
Ltmp28:
	bl	__ZNSt3__113basic_ostreamIcNS_11char_traitsIcEEElsEi
	str	x0, [sp, #88]                   ; 8-byte Folded Spill
Ltmp29:
	b	LBB3_15
LBB3_15:
Ltmp30:
	ldur	x1, [x29, #-96]                 ; 8-byte Folded Reload
	ldr	x0, [sp, #88]                   ; 8-byte Folded Reload
	bl	__ZNSt3__113basic_ostreamIcNS_11char_traitsIcEEElsEPFRS3_S4_E
Ltmp31:
	b	LBB3_16
LBB3_16:
Ltmp32:
	ldur	x0, [x29, #-104]                ; 8-byte Folded Reload
	adrp	x1, l_.str.7@PAGE
	add	x1, x1, l_.str.7@PAGEOFF
	bl	__ZNSt3__1lsINS_11char_traitsIcEEEERNS_13basic_ostreamIcT_EES6_PKc
	str	x0, [sp, #80]                   ; 8-byte Folded Spill
Ltmp33:
	b	LBB3_17
LBB3_17:
Ltmp34:
	ldur	x1, [x29, #-96]                 ; 8-byte Folded Reload
	ldr	x0, [sp, #80]                   ; 8-byte Folded Reload
	bl	__ZNSt3__113basic_ostreamIcNS_11char_traitsIcEEElsEPFRS3_S4_E
Ltmp35:
	b	LBB3_18
LBB3_18:
Ltmp36:
	ldur	x0, [x29, #-104]                ; 8-byte Folded Reload
	adrp	x1, l_.str.2@PAGE
	add	x1, x1, l_.str.2@PAGEOFF
	bl	__ZNSt3__1lsINS_11char_traitsIcEEEERNS_13basic_ostreamIcT_EES6_PKc
	str	x0, [sp, #72]                   ; 8-byte Folded Spill
Ltmp37:
	b	LBB3_19
LBB3_19:
Ltmp38:
	ldur	x1, [x29, #-96]                 ; 8-byte Folded Reload
	ldr	x0, [sp, #72]                   ; 8-byte Folded Reload
	bl	__ZNSt3__113basic_ostreamIcNS_11char_traitsIcEEElsEPFRS3_S4_E
Ltmp39:
	b	LBB3_20
LBB3_20:
Ltmp40:
	ldur	x0, [x29, #-104]                ; 8-byte Folded Reload
	adrp	x1, l_.str.3@PAGE
	add	x1, x1, l_.str.3@PAGEOFF
	bl	__ZNSt3__1lsINS_11char_traitsIcEEEERNS_13basic_ostreamIcT_EES6_PKc
	str	x0, [sp, #64]                   ; 8-byte Folded Spill
Ltmp41:
	b	LBB3_21
LBB3_21:
Ltmp42:
	ldr	x0, [sp, #64]                   ; 8-byte Folded Reload
	adrp	x1, _harimau@PAGE
	add	x1, x1, _harimau@PAGEOFF
	bl	__ZNSt3__1lsIcNS_11char_traitsIcEENS_9allocatorIcEEEERNS_13basic_ostreamIT_T0_EES9_RKNS_12basic_stringIS6_S7_T1_EE
	str	x0, [sp, #56]                   ; 8-byte Folded Spill
Ltmp43:
	b	LBB3_22
LBB3_22:
Ltmp44:
	ldur	x1, [x29, #-96]                 ; 8-byte Folded Reload
	ldr	x0, [sp, #56]                   ; 8-byte Folded Reload
	bl	__ZNSt3__113basic_ostreamIcNS_11char_traitsIcEEElsEPFRS3_S4_E
Ltmp45:
	b	LBB3_23
LBB3_23:
Ltmp46:
	ldur	x0, [x29, #-104]                ; 8-byte Folded Reload
	adrp	x1, l_.str.4@PAGE
	add	x1, x1, l_.str.4@PAGEOFF
	bl	__ZNSt3__1lsINS_11char_traitsIcEEEERNS_13basic_ostreamIcT_EES6_PKc
	str	x0, [sp, #48]                   ; 8-byte Folded Spill
Ltmp47:
	b	LBB3_24
LBB3_24:
	ldr	x0, [sp, #48]                   ; 8-byte Folded Reload
	ldur	x8, [x29, #-112]                ; 8-byte Folded Reload
	ldr	w1, [x8, #24]
Ltmp48:
	bl	__ZNSt3__113basic_ostreamIcNS_11char_traitsIcEEElsEi
	str	x0, [sp, #40]                   ; 8-byte Folded Spill
Ltmp49:
	b	LBB3_25
LBB3_25:
Ltmp50:
	ldur	x1, [x29, #-96]                 ; 8-byte Folded Reload
	ldr	x0, [sp, #40]                   ; 8-byte Folded Reload
	bl	__ZNSt3__113basic_ostreamIcNS_11char_traitsIcEEElsEPFRS3_S4_E
Ltmp51:
	b	LBB3_26
LBB3_26:
Ltmp52:
	ldur	x0, [x29, #-104]                ; 8-byte Folded Reload
	adrp	x1, l_.str.5@PAGE
	add	x1, x1, l_.str.5@PAGEOFF
	bl	__ZNSt3__1lsINS_11char_traitsIcEEEERNS_13basic_ostreamIcT_EES6_PKc
	str	x0, [sp, #32]                   ; 8-byte Folded Spill
Ltmp53:
	b	LBB3_27
LBB3_27:
	ldr	x0, [sp, #32]                   ; 8-byte Folded Reload
	ldur	x8, [x29, #-112]                ; 8-byte Folded Reload
	ldr	w1, [x8, #28]
Ltmp54:
	bl	__ZNSt3__113basic_ostreamIcNS_11char_traitsIcEEElsEi
	str	x0, [sp, #24]                   ; 8-byte Folded Spill
Ltmp55:
	b	LBB3_28
LBB3_28:
Ltmp56:
	ldur	x1, [x29, #-96]                 ; 8-byte Folded Reload
	ldr	x0, [sp, #24]                   ; 8-byte Folded Reload
	bl	__ZNSt3__113basic_ostreamIcNS_11char_traitsIcEEElsEPFRS3_S4_E
Ltmp57:
	b	LBB3_29
LBB3_29:
Ltmp58:
	ldur	x0, [x29, #-104]                ; 8-byte Folded Reload
	adrp	x1, l_.str.6@PAGE
	add	x1, x1, l_.str.6@PAGEOFF
	bl	__ZNSt3__1lsINS_11char_traitsIcEEEERNS_13basic_ostreamIcT_EES6_PKc
	str	x0, [sp, #16]                   ; 8-byte Folded Spill
Ltmp59:
	b	LBB3_30
LBB3_30:
	ldr	x0, [sp, #16]                   ; 8-byte Folded Reload
	ldur	x8, [x29, #-112]                ; 8-byte Folded Reload
	ldr	w1, [x8, #32]
Ltmp60:
	bl	__ZNSt3__113basic_ostreamIcNS_11char_traitsIcEEElsEi
	str	x0, [sp, #8]                    ; 8-byte Folded Spill
Ltmp61:
	b	LBB3_31
LBB3_31:
Ltmp62:
	ldur	x1, [x29, #-96]                 ; 8-byte Folded Reload
	ldr	x0, [sp, #8]                    ; 8-byte Folded Reload
	bl	__ZNSt3__113basic_ostreamIcNS_11char_traitsIcEEElsEPFRS3_S4_E
Ltmp63:
	b	LBB3_32
LBB3_32:
	stur	wzr, [x29, #-20]
	sub	x0, x29, #64
	bl	__ZN7MonsterD1Ev
	ldur	w0, [x29, #-20]
	ldp	x29, x30, [sp, #272]            ; 16-byte Folded Reload
	ldp	x28, x27, [sp, #256]            ; 16-byte Folded Reload
	add	sp, sp, #288
	ret
LBB3_33:
Ltmp64:
	mov	x8, x1
	stur	x0, [x29, #-72]
	stur	w8, [x29, #-76]
Ltmp65:
	sub	x0, x29, #64
	bl	__ZN7MonsterD1Ev
Ltmp66:
	b	LBB3_34
LBB3_34:
	b	LBB3_35
LBB3_35:
	ldur	x0, [x29, #-72]
	bl	__Unwind_Resume
LBB3_36:
Ltmp67:
	bl	___clang_call_terminate
Lfunc_end0:
	.cfi_endproc
	.section	__TEXT,__gcc_except_tab
	.p2align	2
GCC_except_table3:
Lexception0:
	.byte	255                             ; @LPStart Encoding = omit
	.byte	155                             ; @TType Encoding = indirect pcrel sdata4
	.uleb128 Lttbase0-Lttbaseref0
Lttbaseref0:
	.byte	1                               ; Call site Encoding = uleb128
	.uleb128 Lcst_end0-Lcst_begin0
Lcst_begin0:
	.uleb128 Lfunc_begin0-Lfunc_begin0      ; >> Call Site 1 <<
	.uleb128 Ltmp0-Lfunc_begin0             ;   Call between Lfunc_begin0 and Ltmp0
	.byte	0                               ;     has no landing pad
	.byte	0                               ;   On action: cleanup
	.uleb128 Ltmp0-Lfunc_begin0             ; >> Call Site 2 <<
	.uleb128 Ltmp63-Ltmp0                   ;   Call between Ltmp0 and Ltmp63
	.uleb128 Ltmp64-Lfunc_begin0            ;     jumps to Ltmp64
	.byte	0                               ;   On action: cleanup
	.uleb128 Ltmp63-Lfunc_begin0            ; >> Call Site 3 <<
	.uleb128 Ltmp65-Ltmp63                  ;   Call between Ltmp63 and Ltmp65
	.byte	0                               ;     has no landing pad
	.byte	0                               ;   On action: cleanup
	.uleb128 Ltmp65-Lfunc_begin0            ; >> Call Site 4 <<
	.uleb128 Ltmp66-Ltmp65                  ;   Call between Ltmp65 and Ltmp66
	.uleb128 Ltmp67-Lfunc_begin0            ;     jumps to Ltmp67
	.byte	1                               ;   On action: 1
	.uleb128 Ltmp66-Lfunc_begin0            ; >> Call Site 5 <<
	.uleb128 Lfunc_end0-Ltmp66              ;   Call between Ltmp66 and Lfunc_end0
	.byte	0                               ;     has no landing pad
	.byte	0                               ;   On action: cleanup
Lcst_end0:
	.byte	1                               ; >> Action Record 1 <<
                                        ;   Catch TypeInfo 1
	.byte	0                               ;   No further actions
	.p2align	2
                                        ; >> Catch TypeInfos <<
	.long	0                               ; TypeInfo 1
Lttbase0:
	.p2align	2
                                        ; -- End function
	.section	__TEXT,__text,regular,pure_instructions
	.p2align	2                               ; -- Begin function _ZNSt3__112basic_stringIcNS_11char_traitsIcEENS_9allocatorIcEEEaSEPKc
__ZNSt3__112basic_stringIcNS_11char_traitsIcEENS_9allocatorIcEEEaSEPKc: ; @_ZNSt3__112basic_stringIcNS_11char_traitsIcEENS_9allocatorIcEEEaSEPKc
	.cfi_startproc
; %bb.0:
	sub	sp, sp, #32
	stp	x29, x30, [sp, #16]             ; 16-byte Folded Spill
	add	x29, sp, #16
	.cfi_def_cfa w29, 16
	.cfi_offset w30, -8
	.cfi_offset w29, -16
	str	x0, [sp, #8]
	str	x1, [sp]
	ldr	x0, [sp, #8]
	ldr	x1, [sp]
	bl	__ZNSt3__112basic_stringIcNS_11char_traitsIcEENS_9allocatorIcEEE6assignEPKc
	ldp	x29, x30, [sp, #16]             ; 16-byte Folded Reload
	add	sp, sp, #32
	ret
	.cfi_endproc
                                        ; -- End function
	.globl	__ZNSt3__1lsINS_11char_traitsIcEEEERNS_13basic_ostreamIcT_EES6_PKc ; -- Begin function _ZNSt3__1lsINS_11char_traitsIcEEEERNS_13basic_ostreamIcT_EES6_PKc
	.weak_definition	__ZNSt3__1lsINS_11char_traitsIcEEEERNS_13basic_ostreamIcT_EES6_PKc
	.p2align	2
__ZNSt3__1lsINS_11char_traitsIcEEEERNS_13basic_ostreamIcT_EES6_PKc: ; @_ZNSt3__1lsINS_11char_traitsIcEEEERNS_13basic_ostreamIcT_EES6_PKc
	.cfi_startproc
; %bb.0:
	sub	sp, sp, #48
	stp	x29, x30, [sp, #32]             ; 16-byte Folded Spill
	add	x29, sp, #32
	.cfi_def_cfa w29, 16
	.cfi_offset w30, -8
	.cfi_offset w29, -16
	stur	x0, [x29, #-8]
	str	x1, [sp, #16]
	ldur	x8, [x29, #-8]
	str	x8, [sp, #8]                    ; 8-byte Folded Spill
	ldr	x8, [sp, #16]
	str	x8, [sp]                        ; 8-byte Folded Spill
	ldr	x0, [sp, #16]
	bl	__ZNSt3__111char_traitsIcE6lengthEPKc
	ldr	x1, [sp]                        ; 8-byte Folded Reload
	mov	x2, x0
	ldr	x0, [sp, #8]                    ; 8-byte Folded Reload
	bl	__ZNSt3__124__put_character_sequenceIcNS_11char_traitsIcEEEERNS_13basic_ostreamIT_T0_EES7_PKS4_m
	ldp	x29, x30, [sp, #32]             ; 16-byte Folded Reload
	add	sp, sp, #48
	ret
	.cfi_endproc
                                        ; -- End function
	.p2align	2                               ; -- Begin function _ZNSt3__113basic_ostreamIcNS_11char_traitsIcEEElsEPFRS3_S4_E
__ZNSt3__113basic_ostreamIcNS_11char_traitsIcEEElsEPFRS3_S4_E: ; @_ZNSt3__113basic_ostreamIcNS_11char_traitsIcEEElsEPFRS3_S4_E
	.cfi_startproc
; %bb.0:
	sub	sp, sp, #32
	stp	x29, x30, [sp, #16]             ; 16-byte Folded Spill
	add	x29, sp, #16
	.cfi_def_cfa w29, 16
	.cfi_offset w30, -8
	.cfi_offset w29, -16
	str	x0, [sp, #8]
	str	x1, [sp]
	ldr	x0, [sp, #8]
	ldr	x8, [sp]
	blr	x8
	ldp	x29, x30, [sp, #16]             ; 16-byte Folded Reload
	add	sp, sp, #32
	ret
	.cfi_endproc
                                        ; -- End function
	.globl	__ZNSt3__14endlIcNS_11char_traitsIcEEEERNS_13basic_ostreamIT_T0_EES7_ ; -- Begin function _ZNSt3__14endlIcNS_11char_traitsIcEEEERNS_13basic_ostreamIT_T0_EES7_
	.weak_definition	__ZNSt3__14endlIcNS_11char_traitsIcEEEERNS_13basic_ostreamIT_T0_EES7_
	.p2align	2
__ZNSt3__14endlIcNS_11char_traitsIcEEEERNS_13basic_ostreamIT_T0_EES7_: ; @_ZNSt3__14endlIcNS_11char_traitsIcEEEERNS_13basic_ostreamIT_T0_EES7_
	.cfi_startproc
; %bb.0:
	sub	sp, sp, #32
	stp	x29, x30, [sp, #16]             ; 16-byte Folded Spill
	add	x29, sp, #16
	.cfi_def_cfa w29, 16
	.cfi_offset w30, -8
	.cfi_offset w29, -16
	str	x0, [sp, #8]
	ldr	x8, [sp, #8]
	str	x8, [sp]                        ; 8-byte Folded Spill
	ldr	x8, [sp, #8]
	ldr	x9, [x8]
	ldur	x9, [x9, #-24]
	add	x0, x8, x9
	mov	w1, #10
	bl	__ZNKSt3__19basic_iosIcNS_11char_traitsIcEEE5widenEc
	mov	x8, x0
	ldr	x0, [sp]                        ; 8-byte Folded Reload
	sxtb	w1, w8
	bl	__ZNSt3__113basic_ostreamIcNS_11char_traitsIcEEE3putEc
	ldr	x0, [sp, #8]
	bl	__ZNSt3__113basic_ostreamIcNS_11char_traitsIcEEE5flushEv
	ldr	x0, [sp, #8]
	ldp	x29, x30, [sp, #16]             ; 16-byte Folded Reload
	add	sp, sp, #32
	ret
	.cfi_endproc
                                        ; -- End function
	.globl	__ZNSt3__1lsIcNS_11char_traitsIcEENS_9allocatorIcEEEERNS_13basic_ostreamIT_T0_EES9_RKNS_12basic_stringIS6_S7_T1_EE ; -- Begin function _ZNSt3__1lsIcNS_11char_traitsIcEENS_9allocatorIcEEEERNS_13basic_ostreamIT_T0_EES9_RKNS_12basic_stringIS6_S7_T1_EE
	.weak_definition	__ZNSt3__1lsIcNS_11char_traitsIcEENS_9allocatorIcEEEERNS_13basic_ostreamIT_T0_EES9_RKNS_12basic_stringIS6_S7_T1_EE
	.p2align	2
__ZNSt3__1lsIcNS_11char_traitsIcEENS_9allocatorIcEEEERNS_13basic_ostreamIT_T0_EES9_RKNS_12basic_stringIS6_S7_T1_EE: ; @_ZNSt3__1lsIcNS_11char_traitsIcEENS_9allocatorIcEEEERNS_13basic_ostreamIT_T0_EES9_RKNS_12basic_stringIS6_S7_T1_EE
	.cfi_startproc
; %bb.0:
	sub	sp, sp, #48
	stp	x29, x30, [sp, #32]             ; 16-byte Folded Spill
	add	x29, sp, #32
	.cfi_def_cfa w29, 16
	.cfi_offset w30, -8
	.cfi_offset w29, -16
	stur	x0, [x29, #-8]
	str	x1, [sp, #16]
	ldur	x8, [x29, #-8]
	str	x8, [sp, #8]                    ; 8-byte Folded Spill
	ldr	x0, [sp, #16]
	bl	__ZNKSt3__112basic_stringIcNS_11char_traitsIcEENS_9allocatorIcEEE4dataEv
	str	x0, [sp]                        ; 8-byte Folded Spill
	ldr	x0, [sp, #16]
	bl	__ZNKSt3__112basic_stringIcNS_11char_traitsIcEENS_9allocatorIcEEE4sizeEv
	ldr	x1, [sp]                        ; 8-byte Folded Reload
	mov	x2, x0
	ldr	x0, [sp, #8]                    ; 8-byte Folded Reload
	bl	__ZNSt3__124__put_character_sequenceIcNS_11char_traitsIcEEEERNS_13basic_ostreamIT_T0_EES7_PKS4_m
	ldp	x29, x30, [sp, #32]             ; 16-byte Folded Reload
	add	sp, sp, #48
	ret
	.cfi_endproc
                                        ; -- End function
	.private_extern	___clang_call_terminate ; -- Begin function __clang_call_terminate
	.globl	___clang_call_terminate
	.weak_definition	___clang_call_terminate
	.p2align	2
___clang_call_terminate:                ; @__clang_call_terminate
; %bb.0:
	stp	x29, x30, [sp, #-16]!           ; 16-byte Folded Spill
	bl	___cxa_begin_catch
	bl	__ZSt9terminatev
                                        ; -- End function
	.globl	__ZN7MonsterC2Ev                ; -- Begin function _ZN7MonsterC2Ev
	.weak_def_can_be_hidden	__ZN7MonsterC2Ev
	.p2align	2
__ZN7MonsterC2Ev:                       ; @_ZN7MonsterC2Ev
	.cfi_startproc
; %bb.0:
	sub	sp, sp, #32
	stp	x29, x30, [sp, #16]             ; 16-byte Folded Spill
	add	x29, sp, #16
	.cfi_def_cfa w29, 16
	.cfi_offset w30, -8
	.cfi_offset w29, -16
	str	x0, [sp, #8]
	ldr	x0, [sp, #8]
	str	x0, [sp]                        ; 8-byte Folded Spill
	bl	__ZNSt3__112basic_stringIcNS_11char_traitsIcEENS_9allocatorIcEEEC1Ev
	ldr	x0, [sp]                        ; 8-byte Folded Reload
	ldp	x29, x30, [sp, #16]             ; 16-byte Folded Reload
	add	sp, sp, #32
	ret
	.cfi_endproc
                                        ; -- End function
	.p2align	2                               ; -- Begin function _ZNSt3__112basic_stringIcNS_11char_traitsIcEENS_9allocatorIcEEEC1Ev
__ZNSt3__112basic_stringIcNS_11char_traitsIcEENS_9allocatorIcEEEC1Ev: ; @_ZNSt3__112basic_stringIcNS_11char_traitsIcEENS_9allocatorIcEEEC1Ev
	.cfi_startproc
; %bb.0:
	sub	sp, sp, #32
	stp	x29, x30, [sp, #16]             ; 16-byte Folded Spill
	add	x29, sp, #16
	.cfi_def_cfa w29, 16
	.cfi_offset w30, -8
	.cfi_offset w29, -16
	str	x0, [sp, #8]
	ldr	x0, [sp, #8]
	str	x0, [sp]                        ; 8-byte Folded Spill
	bl	__ZNSt3__112basic_stringIcNS_11char_traitsIcEENS_9allocatorIcEEEC2Ev
	ldr	x0, [sp]                        ; 8-byte Folded Reload
	ldp	x29, x30, [sp, #16]             ; 16-byte Folded Reload
	add	sp, sp, #32
	ret
	.cfi_endproc
                                        ; -- End function
	.p2align	2                               ; -- Begin function _ZNSt3__112basic_stringIcNS_11char_traitsIcEENS_9allocatorIcEEEC2Ev
__ZNSt3__112basic_stringIcNS_11char_traitsIcEENS_9allocatorIcEEEC2Ev: ; @_ZNSt3__112basic_stringIcNS_11char_traitsIcEENS_9allocatorIcEEEC2Ev
	.cfi_startproc
; %bb.0:
	sub	sp, sp, #48
	stp	x29, x30, [sp, #32]             ; 16-byte Folded Spill
	add	x29, sp, #32
	.cfi_def_cfa w29, 16
	.cfi_offset w30, -8
	.cfi_offset w29, -16
	stur	x0, [x29, #-8]
	ldur	x0, [x29, #-8]
	str	x0, [sp, #8]                    ; 8-byte Folded Spill
	sub	x1, x29, #9
	sub	x2, x29, #10
	bl	__ZNSt3__117__compressed_pairINS_12basic_stringIcNS_11char_traitsIcEENS_9allocatorIcEEE5__repES5_EC1INS_18__default_init_tagESA_EEOT_OT0_
	ldr	x0, [sp, #8]                    ; 8-byte Folded Reload
	bl	__ZNSt3__112basic_stringIcNS_11char_traitsIcEENS_9allocatorIcEEE6__zeroEv
	ldr	x0, [sp, #8]                    ; 8-byte Folded Reload
	ldp	x29, x30, [sp, #32]             ; 16-byte Folded Reload
	add	sp, sp, #48
	ret
	.cfi_endproc
                                        ; -- End function
	.p2align	2                               ; -- Begin function _ZNSt3__117__compressed_pairINS_12basic_stringIcNS_11char_traitsIcEENS_9allocatorIcEEE5__repES5_EC1INS_18__default_init_tagESA_EEOT_OT0_
__ZNSt3__117__compressed_pairINS_12basic_stringIcNS_11char_traitsIcEENS_9allocatorIcEEE5__repES5_EC1INS_18__default_init_tagESA_EEOT_OT0_: ; @_ZNSt3__117__compressed_pairINS_12basic_stringIcNS_11char_traitsIcEENS_9allocatorIcEEE5__repES5_EC1INS_18__default_init_tagESA_EEOT_OT0_
	.cfi_startproc
; %bb.0:
	sub	sp, sp, #48
	stp	x29, x30, [sp, #32]             ; 16-byte Folded Spill
	add	x29, sp, #32
	.cfi_def_cfa w29, 16
	.cfi_offset w30, -8
	.cfi_offset w29, -16
	stur	x0, [x29, #-8]
	str	x1, [sp, #16]
	str	x2, [sp, #8]
	ldur	x0, [x29, #-8]
	str	x0, [sp]                        ; 8-byte Folded Spill
	ldr	x1, [sp, #16]
	ldr	x2, [sp, #8]
	bl	__ZNSt3__117__compressed_pairINS_12basic_stringIcNS_11char_traitsIcEENS_9allocatorIcEEE5__repES5_EC2INS_18__default_init_tagESA_EEOT_OT0_
	ldr	x0, [sp]                        ; 8-byte Folded Reload
	ldp	x29, x30, [sp, #32]             ; 16-byte Folded Reload
	add	sp, sp, #48
	ret
	.cfi_endproc
                                        ; -- End function
	.p2align	2                               ; -- Begin function _ZNSt3__112basic_stringIcNS_11char_traitsIcEENS_9allocatorIcEEE6__zeroEv
__ZNSt3__112basic_stringIcNS_11char_traitsIcEENS_9allocatorIcEEE6__zeroEv: ; @_ZNSt3__112basic_stringIcNS_11char_traitsIcEENS_9allocatorIcEEE6__zeroEv
	.cfi_startproc
; %bb.0:
	sub	sp, sp, #48
	stp	x29, x30, [sp, #32]             ; 16-byte Folded Spill
	add	x29, sp, #32
	.cfi_def_cfa w29, 16
	.cfi_offset w30, -8
	.cfi_offset w29, -16
	stur	x0, [x29, #-8]
	ldur	x0, [x29, #-8]
	bl	__ZNSt3__117__compressed_pairINS_12basic_stringIcNS_11char_traitsIcEENS_9allocatorIcEEE5__repES5_E5firstEv
	str	x0, [sp, #16]
	str	wzr, [sp, #12]
	b	LBB14_1
LBB14_1:                                ; =>This Inner Loop Header: Depth=1
	ldr	w8, [sp, #12]
	subs	w8, w8, #3
	b.hs	LBB14_4
	b	LBB14_2
LBB14_2:                                ;   in Loop: Header=BB14_1 Depth=1
	ldr	x9, [sp, #16]
	ldr	w8, [sp, #12]
	mov	x10, x8
	mov	x8, #0
	str	x8, [x9, x10, lsl #3]
	b	LBB14_3
LBB14_3:                                ;   in Loop: Header=BB14_1 Depth=1
	ldr	w8, [sp, #12]
	add	w8, w8, #1
	str	w8, [sp, #12]
	b	LBB14_1
LBB14_4:
	ldp	x29, x30, [sp, #32]             ; 16-byte Folded Reload
	add	sp, sp, #48
	ret
	.cfi_endproc
                                        ; -- End function
	.p2align	2                               ; -- Begin function _ZNSt3__117__compressed_pairINS_12basic_stringIcNS_11char_traitsIcEENS_9allocatorIcEEE5__repES5_EC2INS_18__default_init_tagESA_EEOT_OT0_
__ZNSt3__117__compressed_pairINS_12basic_stringIcNS_11char_traitsIcEENS_9allocatorIcEEE5__repES5_EC2INS_18__default_init_tagESA_EEOT_OT0_: ; @_ZNSt3__117__compressed_pairINS_12basic_stringIcNS_11char_traitsIcEENS_9allocatorIcEEE5__repES5_EC2INS_18__default_init_tagESA_EEOT_OT0_
	.cfi_startproc
; %bb.0:
	sub	sp, sp, #64
	stp	x29, x30, [sp, #48]             ; 16-byte Folded Spill
	add	x29, sp, #48
	.cfi_def_cfa w29, 16
	.cfi_offset w30, -8
	.cfi_offset w29, -16
	stur	x0, [x29, #-8]
	stur	x1, [x29, #-16]
	str	x2, [sp, #24]
	ldur	x8, [x29, #-8]
	str	x8, [sp, #8]                    ; 8-byte Folded Spill
	ldur	x0, [x29, #-16]
	bl	__ZNSt3__1L7forwardINS_18__default_init_tagEEEOT_RNS_16remove_referenceIS2_E4typeE
	ldr	x0, [sp, #8]                    ; 8-byte Folded Reload
	bl	__ZNSt3__122__compressed_pair_elemINS_12basic_stringIcNS_11char_traitsIcEENS_9allocatorIcEEE5__repELi0ELb0EEC2ENS_18__default_init_tagE
	ldr	x0, [sp, #24]
	bl	__ZNSt3__1L7forwardINS_18__default_init_tagEEEOT_RNS_16remove_referenceIS2_E4typeE
	ldr	x0, [sp, #8]                    ; 8-byte Folded Reload
	bl	__ZNSt3__122__compressed_pair_elemINS_9allocatorIcEELi1ELb1EEC2ENS_18__default_init_tagE
	ldr	x0, [sp, #8]                    ; 8-byte Folded Reload
	ldp	x29, x30, [sp, #48]             ; 16-byte Folded Reload
	add	sp, sp, #64
	ret
	.cfi_endproc
                                        ; -- End function
	.p2align	2                               ; -- Begin function _ZNSt3__1L7forwardINS_18__default_init_tagEEEOT_RNS_16remove_referenceIS2_E4typeE
__ZNSt3__1L7forwardINS_18__default_init_tagEEEOT_RNS_16remove_referenceIS2_E4typeE: ; @_ZNSt3__1L7forwardINS_18__default_init_tagEEEOT_RNS_16remove_referenceIS2_E4typeE
	.cfi_startproc
; %bb.0:
	sub	sp, sp, #16
	.cfi_def_cfa_offset 16
	str	x0, [sp, #8]
	ldr	x0, [sp, #8]
	add	sp, sp, #16
	ret
	.cfi_endproc
                                        ; -- End function
	.p2align	2                               ; -- Begin function _ZNSt3__122__compressed_pair_elemINS_12basic_stringIcNS_11char_traitsIcEENS_9allocatorIcEEE5__repELi0ELb0EEC2ENS_18__default_init_tagE
__ZNSt3__122__compressed_pair_elemINS_12basic_stringIcNS_11char_traitsIcEENS_9allocatorIcEEE5__repELi0ELb0EEC2ENS_18__default_init_tagE: ; @_ZNSt3__122__compressed_pair_elemINS_12basic_stringIcNS_11char_traitsIcEENS_9allocatorIcEEE5__repELi0ELb0EEC2ENS_18__default_init_tagE
	.cfi_startproc
; %bb.0:
	sub	sp, sp, #16
	.cfi_def_cfa_offset 16
	str	x0, [sp]
	ldr	x0, [sp]
	add	sp, sp, #16
	ret
	.cfi_endproc
                                        ; -- End function
	.p2align	2                               ; -- Begin function _ZNSt3__122__compressed_pair_elemINS_9allocatorIcEELi1ELb1EEC2ENS_18__default_init_tagE
__ZNSt3__122__compressed_pair_elemINS_9allocatorIcEELi1ELb1EEC2ENS_18__default_init_tagE: ; @_ZNSt3__122__compressed_pair_elemINS_9allocatorIcEELi1ELb1EEC2ENS_18__default_init_tagE
	.cfi_startproc
; %bb.0:
	sub	sp, sp, #48
	stp	x29, x30, [sp, #32]             ; 16-byte Folded Spill
	add	x29, sp, #32
	.cfi_def_cfa w29, 16
	.cfi_offset w30, -8
	.cfi_offset w29, -16
	str	x0, [sp, #16]
	ldr	x0, [sp, #16]
	str	x0, [sp, #8]                    ; 8-byte Folded Spill
	bl	__ZNSt3__19allocatorIcEC2Ev
	ldr	x0, [sp, #8]                    ; 8-byte Folded Reload
	ldp	x29, x30, [sp, #32]             ; 16-byte Folded Reload
	add	sp, sp, #48
	ret
	.cfi_endproc
                                        ; -- End function
	.p2align	2                               ; -- Begin function _ZNSt3__19allocatorIcEC2Ev
__ZNSt3__19allocatorIcEC2Ev:            ; @_ZNSt3__19allocatorIcEC2Ev
	.cfi_startproc
; %bb.0:
	sub	sp, sp, #32
	stp	x29, x30, [sp, #16]             ; 16-byte Folded Spill
	add	x29, sp, #16
	.cfi_def_cfa w29, 16
	.cfi_offset w30, -8
	.cfi_offset w29, -16
	str	x0, [sp, #8]
	ldr	x0, [sp, #8]
	str	x0, [sp]                        ; 8-byte Folded Spill
	bl	__ZNSt3__116__non_trivial_ifILb1ENS_9allocatorIcEEEC2Ev
	ldr	x0, [sp]                        ; 8-byte Folded Reload
	ldp	x29, x30, [sp, #16]             ; 16-byte Folded Reload
	add	sp, sp, #32
	ret
	.cfi_endproc
                                        ; -- End function
	.p2align	2                               ; -- Begin function _ZNSt3__116__non_trivial_ifILb1ENS_9allocatorIcEEEC2Ev
__ZNSt3__116__non_trivial_ifILb1ENS_9allocatorIcEEEC2Ev: ; @_ZNSt3__116__non_trivial_ifILb1ENS_9allocatorIcEEEC2Ev
	.cfi_startproc
; %bb.0:
	sub	sp, sp, #16
	.cfi_def_cfa_offset 16
	str	x0, [sp, #8]
	ldr	x0, [sp, #8]
	add	sp, sp, #16
	ret
	.cfi_endproc
                                        ; -- End function
	.p2align	2                               ; -- Begin function _ZNSt3__117__compressed_pairINS_12basic_stringIcNS_11char_traitsIcEENS_9allocatorIcEEE5__repES5_E5firstEv
__ZNSt3__117__compressed_pairINS_12basic_stringIcNS_11char_traitsIcEENS_9allocatorIcEEE5__repES5_E5firstEv: ; @_ZNSt3__117__compressed_pairINS_12basic_stringIcNS_11char_traitsIcEENS_9allocatorIcEEE5__repES5_E5firstEv
	.cfi_startproc
; %bb.0:
	sub	sp, sp, #32
	stp	x29, x30, [sp, #16]             ; 16-byte Folded Spill
	add	x29, sp, #16
	.cfi_def_cfa w29, 16
	.cfi_offset w30, -8
	.cfi_offset w29, -16
	str	x0, [sp, #8]
	ldr	x0, [sp, #8]
	bl	__ZNSt3__122__compressed_pair_elemINS_12basic_stringIcNS_11char_traitsIcEENS_9allocatorIcEEE5__repELi0ELb0EE5__getEv
	ldp	x29, x30, [sp, #16]             ; 16-byte Folded Reload
	add	sp, sp, #32
	ret
	.cfi_endproc
                                        ; -- End function
	.p2align	2                               ; -- Begin function _ZNSt3__122__compressed_pair_elemINS_12basic_stringIcNS_11char_traitsIcEENS_9allocatorIcEEE5__repELi0ELb0EE5__getEv
__ZNSt3__122__compressed_pair_elemINS_12basic_stringIcNS_11char_traitsIcEENS_9allocatorIcEEE5__repELi0ELb0EE5__getEv: ; @_ZNSt3__122__compressed_pair_elemINS_12basic_stringIcNS_11char_traitsIcEENS_9allocatorIcEEE5__repELi0ELb0EE5__getEv
	.cfi_startproc
; %bb.0:
	sub	sp, sp, #16
	.cfi_def_cfa_offset 16
	str	x0, [sp, #8]
	ldr	x0, [sp, #8]
	add	sp, sp, #16
	ret
	.cfi_endproc
                                        ; -- End function
	.globl	__ZN7MonsterD2Ev                ; -- Begin function _ZN7MonsterD2Ev
	.weak_def_can_be_hidden	__ZN7MonsterD2Ev
	.p2align	2
__ZN7MonsterD2Ev:                       ; @_ZN7MonsterD2Ev
	.cfi_startproc
; %bb.0:
	sub	sp, sp, #32
	stp	x29, x30, [sp, #16]             ; 16-byte Folded Spill
	add	x29, sp, #16
	.cfi_def_cfa w29, 16
	.cfi_offset w30, -8
	.cfi_offset w29, -16
	str	x0, [sp, #8]
	ldr	x0, [sp, #8]
	str	x0, [sp]                        ; 8-byte Folded Spill
	bl	__ZNSt3__112basic_stringIcNS_11char_traitsIcEENS_9allocatorIcEEED1Ev
	ldr	x0, [sp]                        ; 8-byte Folded Reload
	ldp	x29, x30, [sp, #16]             ; 16-byte Folded Reload
	add	sp, sp, #32
	ret
	.cfi_endproc
                                        ; -- End function
	.globl	__ZNSt3__124__put_character_sequenceIcNS_11char_traitsIcEEEERNS_13basic_ostreamIT_T0_EES7_PKS4_m ; -- Begin function _ZNSt3__124__put_character_sequenceIcNS_11char_traitsIcEEEERNS_13basic_ostreamIT_T0_EES7_PKS4_m
	.weak_definition	__ZNSt3__124__put_character_sequenceIcNS_11char_traitsIcEEEERNS_13basic_ostreamIT_T0_EES7_PKS4_m
	.p2align	2
__ZNSt3__124__put_character_sequenceIcNS_11char_traitsIcEEEERNS_13basic_ostreamIT_T0_EES7_PKS4_m: ; @_ZNSt3__124__put_character_sequenceIcNS_11char_traitsIcEEEERNS_13basic_ostreamIT_T0_EES7_PKS4_m
Lfunc_begin1:
	.cfi_startproc
	.cfi_personality 155, ___gxx_personality_v0
	.cfi_lsda 16, Lexception1
; %bb.0:
	sub	sp, sp, #160
	stp	x29, x30, [sp, #144]            ; 16-byte Folded Spill
	add	x29, sp, #144
	.cfi_def_cfa w29, 16
	.cfi_offset w30, -8
	.cfi_offset w29, -16
	stur	x0, [x29, #-8]
	stur	x1, [x29, #-16]
	stur	x2, [x29, #-24]
	ldur	x1, [x29, #-8]
Ltmp72:
	sub	x0, x29, #40
	bl	__ZNSt3__113basic_ostreamIcNS_11char_traitsIcEEE6sentryC1ERS3_
Ltmp73:
	b	LBB24_1
LBB24_1:
Ltmp74:
	sub	x0, x29, #40
	bl	__ZNKSt3__113basic_ostreamIcNS_11char_traitsIcEEE6sentrycvbEv
	str	w0, [sp, #68]                   ; 4-byte Folded Spill
Ltmp75:
	b	LBB24_2
LBB24_2:
	ldr	w8, [sp, #68]                   ; 4-byte Folded Reload
	tbz	w8, #0, LBB24_15
	b	LBB24_3
LBB24_3:
	ldur	x1, [x29, #-8]
	add	x0, sp, #72
	bl	__ZNSt3__119ostreambuf_iteratorIcNS_11char_traitsIcEEEC1ERNS_13basic_ostreamIcS2_EE
	ldur	x8, [x29, #-16]
	str	x8, [sp, #56]                   ; 8-byte Folded Spill
	ldur	x8, [x29, #-8]
	ldr	x9, [x8]
	ldur	x9, [x9, #-24]
	add	x0, x8, x9
Ltmp76:
	bl	__ZNKSt3__18ios_base5flagsEv
	str	w0, [sp, #64]                   ; 4-byte Folded Spill
Ltmp77:
	b	LBB24_4
LBB24_4:
	ldr	w8, [sp, #64]                   ; 4-byte Folded Reload
	mov	w9, #176
	and	w8, w8, w9
	subs	w8, w8, #32
	b.ne	LBB24_6
	b	LBB24_5
LBB24_5:
	ldur	x8, [x29, #-16]
	ldur	x9, [x29, #-24]
	add	x8, x8, x9
	str	x8, [sp, #48]                   ; 8-byte Folded Spill
	b	LBB24_7
LBB24_6:
	ldur	x8, [x29, #-16]
	str	x8, [sp, #48]                   ; 8-byte Folded Spill
	b	LBB24_7
LBB24_7:
	ldr	x8, [sp, #48]                   ; 8-byte Folded Reload
	str	x8, [sp, #16]                   ; 8-byte Folded Spill
	ldur	x8, [x29, #-16]
	ldur	x9, [x29, #-24]
	add	x8, x8, x9
	str	x8, [sp, #24]                   ; 8-byte Folded Spill
	ldur	x8, [x29, #-8]
	ldr	x9, [x8]
	ldur	x9, [x9, #-24]
	add	x8, x8, x9
	str	x8, [sp, #32]                   ; 8-byte Folded Spill
	ldur	x8, [x29, #-8]
	ldr	x9, [x8]
	ldur	x9, [x9, #-24]
	add	x0, x8, x9
Ltmp78:
	bl	__ZNKSt3__19basic_iosIcNS_11char_traitsIcEEE4fillEv
	str	w0, [sp, #44]                   ; 4-byte Folded Spill
Ltmp79:
	b	LBB24_8
LBB24_8:
	ldr	w8, [sp, #44]                   ; 4-byte Folded Reload
	ldr	x4, [sp, #32]                   ; 8-byte Folded Reload
	ldr	x3, [sp, #24]                   ; 8-byte Folded Reload
	ldr	x2, [sp, #16]                   ; 8-byte Folded Reload
	ldr	x1, [sp, #56]                   ; 8-byte Folded Reload
	ldr	x0, [sp, #72]
Ltmp80:
	sxtb	w5, w8
	bl	__ZNSt3__116__pad_and_outputIcNS_11char_traitsIcEEEENS_19ostreambuf_iteratorIT_T0_EES6_PKS4_S8_S8_RNS_8ios_baseES4_
	str	x0, [sp, #8]                    ; 8-byte Folded Spill
Ltmp81:
	b	LBB24_9
LBB24_9:
	ldr	x8, [sp, #8]                    ; 8-byte Folded Reload
	sub	x0, x29, #64
	stur	x8, [x29, #-64]
	bl	__ZNKSt3__119ostreambuf_iteratorIcNS_11char_traitsIcEEE6failedEv
	tbz	w0, #0, LBB24_14
	b	LBB24_10
LBB24_10:
	ldur	x8, [x29, #-8]
	ldr	x9, [x8]
	ldur	x9, [x9, #-24]
	add	x0, x8, x9
Ltmp82:
	mov	w1, #5
	bl	__ZNSt3__19basic_iosIcNS_11char_traitsIcEEE8setstateEj
Ltmp83:
	b	LBB24_11
LBB24_11:
	b	LBB24_14
LBB24_12:
Ltmp89:
	mov	x8, x1
	stur	x0, [x29, #-48]
	stur	w8, [x29, #-52]
	b	LBB24_18
LBB24_13:
Ltmp84:
	mov	x8, x1
	stur	x0, [x29, #-48]
	stur	w8, [x29, #-52]
Ltmp85:
	sub	x0, x29, #40
	bl	__ZNSt3__113basic_ostreamIcNS_11char_traitsIcEEE6sentryD1Ev
Ltmp86:
	b	LBB24_17
LBB24_14:
	b	LBB24_15
LBB24_15:
Ltmp87:
	sub	x0, x29, #40
	bl	__ZNSt3__113basic_ostreamIcNS_11char_traitsIcEEE6sentryD1Ev
Ltmp88:
	b	LBB24_16
LBB24_16:
	b	LBB24_20
LBB24_17:
	b	LBB24_18
LBB24_18:
	ldur	x0, [x29, #-48]
	bl	___cxa_begin_catch
	ldur	x8, [x29, #-8]
	ldr	x9, [x8]
	ldur	x9, [x9, #-24]
	add	x0, x8, x9
Ltmp90:
	bl	__ZNSt3__18ios_base33__set_badbit_and_consider_rethrowEv
Ltmp91:
	b	LBB24_19
LBB24_19:
	bl	___cxa_end_catch
	b	LBB24_20
LBB24_20:
	ldur	x0, [x29, #-8]
	ldp	x29, x30, [sp, #144]            ; 16-byte Folded Reload
	add	sp, sp, #160
	ret
LBB24_21:
Ltmp92:
	mov	x8, x1
	stur	x0, [x29, #-48]
	stur	w8, [x29, #-52]
Ltmp93:
	bl	___cxa_end_catch
Ltmp94:
	b	LBB24_22
LBB24_22:
	b	LBB24_23
LBB24_23:
	ldur	x0, [x29, #-48]
	bl	__Unwind_Resume
LBB24_24:
Ltmp95:
	bl	___clang_call_terminate
Lfunc_end1:
	.cfi_endproc
	.section	__TEXT,__gcc_except_tab
	.p2align	2
GCC_except_table24:
Lexception1:
	.byte	255                             ; @LPStart Encoding = omit
	.byte	155                             ; @TType Encoding = indirect pcrel sdata4
	.uleb128 Lttbase1-Lttbaseref1
Lttbaseref1:
	.byte	1                               ; Call site Encoding = uleb128
	.uleb128 Lcst_end1-Lcst_begin1
Lcst_begin1:
	.uleb128 Ltmp72-Lfunc_begin1            ; >> Call Site 1 <<
	.uleb128 Ltmp73-Ltmp72                  ;   Call between Ltmp72 and Ltmp73
	.uleb128 Ltmp89-Lfunc_begin1            ;     jumps to Ltmp89
	.byte	1                               ;   On action: 1
	.uleb128 Ltmp74-Lfunc_begin1            ; >> Call Site 2 <<
	.uleb128 Ltmp83-Ltmp74                  ;   Call between Ltmp74 and Ltmp83
	.uleb128 Ltmp84-Lfunc_begin1            ;     jumps to Ltmp84
	.byte	1                               ;   On action: 1
	.uleb128 Ltmp85-Lfunc_begin1            ; >> Call Site 3 <<
	.uleb128 Ltmp86-Ltmp85                  ;   Call between Ltmp85 and Ltmp86
	.uleb128 Ltmp95-Lfunc_begin1            ;     jumps to Ltmp95
	.byte	1                               ;   On action: 1
	.uleb128 Ltmp87-Lfunc_begin1            ; >> Call Site 4 <<
	.uleb128 Ltmp88-Ltmp87                  ;   Call between Ltmp87 and Ltmp88
	.uleb128 Ltmp89-Lfunc_begin1            ;     jumps to Ltmp89
	.byte	1                               ;   On action: 1
	.uleb128 Ltmp88-Lfunc_begin1            ; >> Call Site 5 <<
	.uleb128 Ltmp90-Ltmp88                  ;   Call between Ltmp88 and Ltmp90
	.byte	0                               ;     has no landing pad
	.byte	0                               ;   On action: cleanup
	.uleb128 Ltmp90-Lfunc_begin1            ; >> Call Site 6 <<
	.uleb128 Ltmp91-Ltmp90                  ;   Call between Ltmp90 and Ltmp91
	.uleb128 Ltmp92-Lfunc_begin1            ;     jumps to Ltmp92
	.byte	0                               ;   On action: cleanup
	.uleb128 Ltmp91-Lfunc_begin1            ; >> Call Site 7 <<
	.uleb128 Ltmp93-Ltmp91                  ;   Call between Ltmp91 and Ltmp93
	.byte	0                               ;     has no landing pad
	.byte	0                               ;   On action: cleanup
	.uleb128 Ltmp93-Lfunc_begin1            ; >> Call Site 8 <<
	.uleb128 Ltmp94-Ltmp93                  ;   Call between Ltmp93 and Ltmp94
	.uleb128 Ltmp95-Lfunc_begin1            ;     jumps to Ltmp95
	.byte	1                               ;   On action: 1
	.uleb128 Ltmp94-Lfunc_begin1            ; >> Call Site 9 <<
	.uleb128 Lfunc_end1-Ltmp94              ;   Call between Ltmp94 and Lfunc_end1
	.byte	0                               ;     has no landing pad
	.byte	0                               ;   On action: cleanup
Lcst_end1:
	.byte	1                               ; >> Action Record 1 <<
                                        ;   Catch TypeInfo 1
	.byte	0                               ;   No further actions
	.p2align	2
                                        ; >> Catch TypeInfos <<
	.long	0                               ; TypeInfo 1
Lttbase1:
	.p2align	2
                                        ; -- End function
	.section	__TEXT,__text,regular,pure_instructions
	.globl	__ZNSt3__111char_traitsIcE6lengthEPKc ; -- Begin function _ZNSt3__111char_traitsIcE6lengthEPKc
	.weak_definition	__ZNSt3__111char_traitsIcE6lengthEPKc
	.p2align	2
__ZNSt3__111char_traitsIcE6lengthEPKc:  ; @_ZNSt3__111char_traitsIcE6lengthEPKc
	.cfi_startproc
; %bb.0:
	sub	sp, sp, #32
	stp	x29, x30, [sp, #16]             ; 16-byte Folded Spill
	add	x29, sp, #16
	.cfi_def_cfa w29, 16
	.cfi_offset w30, -8
	.cfi_offset w29, -16
	str	x0, [sp, #8]
	ldr	x0, [sp, #8]
	bl	_strlen
	ldp	x29, x30, [sp, #16]             ; 16-byte Folded Reload
	add	sp, sp, #32
	ret
	.cfi_endproc
                                        ; -- End function
	.p2align	2                               ; -- Begin function _ZNKSt3__113basic_ostreamIcNS_11char_traitsIcEEE6sentrycvbEv
__ZNKSt3__113basic_ostreamIcNS_11char_traitsIcEEE6sentrycvbEv: ; @_ZNKSt3__113basic_ostreamIcNS_11char_traitsIcEEE6sentrycvbEv
	.cfi_startproc
; %bb.0:
	sub	sp, sp, #16
	.cfi_def_cfa_offset 16
	str	x0, [sp, #8]
	ldr	x8, [sp, #8]
	ldrb	w8, [x8]
	and	w0, w8, #0x1
	add	sp, sp, #16
	ret
	.cfi_endproc
                                        ; -- End function
	.private_extern	__ZNSt3__116__pad_and_outputIcNS_11char_traitsIcEEEENS_19ostreambuf_iteratorIT_T0_EES6_PKS4_S8_S8_RNS_8ios_baseES4_ ; -- Begin function _ZNSt3__116__pad_and_outputIcNS_11char_traitsIcEEEENS_19ostreambuf_iteratorIT_T0_EES6_PKS4_S8_S8_RNS_8ios_baseES4_
	.globl	__ZNSt3__116__pad_and_outputIcNS_11char_traitsIcEEEENS_19ostreambuf_iteratorIT_T0_EES6_PKS4_S8_S8_RNS_8ios_baseES4_
	.weak_definition	__ZNSt3__116__pad_and_outputIcNS_11char_traitsIcEEEENS_19ostreambuf_iteratorIT_T0_EES6_PKS4_S8_S8_RNS_8ios_baseES4_
	.p2align	2
__ZNSt3__116__pad_and_outputIcNS_11char_traitsIcEEEENS_19ostreambuf_iteratorIT_T0_EES6_PKS4_S8_S8_RNS_8ios_baseES4_: ; @_ZNSt3__116__pad_and_outputIcNS_11char_traitsIcEEEENS_19ostreambuf_iteratorIT_T0_EES6_PKS4_S8_S8_RNS_8ios_baseES4_
Lfunc_begin2:
	.cfi_startproc
	.cfi_personality 155, ___gxx_personality_v0
	.cfi_lsda 16, Lexception2
; %bb.0:
	sub	sp, sp, #224
	stp	x29, x30, [sp, #208]            ; 16-byte Folded Spill
	add	x29, sp, #208
	.cfi_def_cfa w29, 16
	.cfi_offset w30, -8
	.cfi_offset w29, -16
	stur	x0, [x29, #-16]
	stur	x1, [x29, #-24]
	stur	x2, [x29, #-32]
	stur	x3, [x29, #-40]
	stur	x4, [x29, #-48]
	sturb	w5, [x29, #-49]
	ldur	x8, [x29, #-16]
	str	x8, [sp, #40]                   ; 8-byte Folded Spill
	bl	__ZNSt3__1L15__get_nullptr_tEv
	mov	x8, x0
	sub	x0, x29, #64
	stur	x8, [x29, #-64]
	bl	__ZNKSt3__19nullptr_tcvPT_INS_15basic_streambufIcNS_11char_traitsIcEEEEEEv
	ldr	x8, [sp, #40]                   ; 8-byte Folded Reload
	subs	x8, x8, x0
	b.ne	LBB27_2
	b	LBB27_1
LBB27_1:
	ldur	x8, [x29, #-16]
	stur	x8, [x29, #-8]
	b	LBB27_26
LBB27_2:
	ldur	x8, [x29, #-40]
	ldur	x9, [x29, #-24]
	subs	x8, x8, x9
	stur	x8, [x29, #-72]
	ldur	x0, [x29, #-48]
	bl	__ZNKSt3__18ios_base5widthEv
	stur	x0, [x29, #-80]
	ldur	x8, [x29, #-80]
	ldur	x9, [x29, #-72]
	subs	x8, x8, x9
	b.le	LBB27_4
	b	LBB27_3
LBB27_3:
	ldur	x9, [x29, #-72]
	ldur	x8, [x29, #-80]
	subs	x8, x8, x9
	stur	x8, [x29, #-80]
	b	LBB27_5
LBB27_4:
	stur	xzr, [x29, #-80]
	b	LBB27_5
LBB27_5:
	ldur	x8, [x29, #-32]
	ldur	x9, [x29, #-24]
	subs	x8, x8, x9
	stur	x8, [x29, #-88]
	ldur	x8, [x29, #-88]
	subs	x8, x8, #0
	b.le	LBB27_9
	b	LBB27_6
LBB27_6:
	ldur	x0, [x29, #-16]
	ldur	x1, [x29, #-24]
	ldur	x2, [x29, #-88]
	bl	__ZNSt3__115basic_streambufIcNS_11char_traitsIcEEE5sputnEPKcl
	ldur	x8, [x29, #-88]
	subs	x8, x0, x8
	b.eq	LBB27_8
	b	LBB27_7
LBB27_7:
	bl	__ZNSt3__1L15__get_nullptr_tEv
	mov	x8, x0
	sub	x0, x29, #96
	stur	x8, [x29, #-96]
	bl	__ZNKSt3__19nullptr_tcvPT_INS_15basic_streambufIcNS_11char_traitsIcEEEEEEv
	stur	x0, [x29, #-16]
	ldur	x8, [x29, #-16]
	stur	x8, [x29, #-8]
	b	LBB27_26
LBB27_8:
	b	LBB27_9
LBB27_9:
	ldur	x8, [x29, #-80]
	subs	x8, x8, #0
	b.le	LBB27_21
	b	LBB27_10
LBB27_10:
	ldur	x1, [x29, #-80]
	ldursb	w2, [x29, #-49]
	add	x0, sp, #88
	str	x0, [sp, #16]                   ; 8-byte Folded Spill
	bl	__ZNSt3__112basic_stringIcNS_11char_traitsIcEENS_9allocatorIcEEEC1Emc
	ldr	x0, [sp, #16]                   ; 8-byte Folded Reload
	ldur	x8, [x29, #-16]
	str	x8, [sp, #24]                   ; 8-byte Folded Spill
	bl	__ZNKSt3__112basic_stringIcNS_11char_traitsIcEENS_9allocatorIcEEE4dataEv
	mov	x1, x0
	ldr	x0, [sp, #24]                   ; 8-byte Folded Reload
	ldur	x2, [x29, #-80]
Ltmp97:
	bl	__ZNSt3__115basic_streambufIcNS_11char_traitsIcEEE5sputnEPKcl
	str	x0, [sp, #32]                   ; 8-byte Folded Spill
Ltmp98:
	b	LBB27_11
LBB27_11:
	ldr	x8, [sp, #32]                   ; 8-byte Folded Reload
	ldur	x9, [x29, #-80]
	subs	x8, x8, x9
	b.eq	LBB27_16
	b	LBB27_12
LBB27_12:
Ltmp99:
	bl	__ZNSt3__1L15__get_nullptr_tEv
	str	x0, [sp, #8]                    ; 8-byte Folded Spill
Ltmp100:
	b	LBB27_13
LBB27_13:
	ldr	x8, [sp, #8]                    ; 8-byte Folded Reload
	add	x0, sp, #64
	str	x8, [sp, #64]
Ltmp101:
	bl	__ZNKSt3__19nullptr_tcvPT_INS_15basic_streambufIcNS_11char_traitsIcEEEEEEv
	str	x0, [sp]                        ; 8-byte Folded Spill
Ltmp102:
	b	LBB27_14
LBB27_14:
	ldr	x8, [sp]                        ; 8-byte Folded Reload
	stur	x8, [x29, #-16]
	ldur	x8, [x29, #-16]
	stur	x8, [x29, #-8]
	mov	w8, #1
	str	w8, [sp, #60]
	b	LBB27_17
LBB27_15:
Ltmp103:
	mov	x8, x1
	str	x0, [sp, #80]
	str	w8, [sp, #76]
Ltmp104:
	add	x0, sp, #88
	bl	__ZNSt3__112basic_stringIcNS_11char_traitsIcEENS_9allocatorIcEEED1Ev
Ltmp105:
	b	LBB27_20
LBB27_16:
	str	wzr, [sp, #60]
	b	LBB27_17
LBB27_17:
	add	x0, sp, #88
	bl	__ZNSt3__112basic_stringIcNS_11char_traitsIcEENS_9allocatorIcEEED1Ev
	ldr	w8, [sp, #60]
	cbz	w8, LBB27_19
	b	LBB27_18
LBB27_18:
	b	LBB27_26
LBB27_19:
	b	LBB27_21
LBB27_20:
	b	LBB27_27
LBB27_21:
	ldur	x8, [x29, #-40]
	ldur	x9, [x29, #-32]
	subs	x8, x8, x9
	stur	x8, [x29, #-88]
	ldur	x8, [x29, #-88]
	subs	x8, x8, #0
	b.le	LBB27_25
	b	LBB27_22
LBB27_22:
	ldur	x0, [x29, #-16]
	ldur	x1, [x29, #-32]
	ldur	x2, [x29, #-88]
	bl	__ZNSt3__115basic_streambufIcNS_11char_traitsIcEEE5sputnEPKcl
	ldur	x8, [x29, #-88]
	subs	x8, x0, x8
	b.eq	LBB27_24
	b	LBB27_23
LBB27_23:
	bl	__ZNSt3__1L15__get_nullptr_tEv
	mov	x8, x0
	add	x0, sp, #48
	str	x8, [sp, #48]
	bl	__ZNKSt3__19nullptr_tcvPT_INS_15basic_streambufIcNS_11char_traitsIcEEEEEEv
	stur	x0, [x29, #-16]
	ldur	x8, [x29, #-16]
	stur	x8, [x29, #-8]
	b	LBB27_26
LBB27_24:
	b	LBB27_25
LBB27_25:
	ldur	x0, [x29, #-48]
	mov	x1, #0
	bl	__ZNSt3__18ios_base5widthEl
	ldur	x8, [x29, #-16]
	stur	x8, [x29, #-8]
	b	LBB27_26
LBB27_26:
	ldur	x0, [x29, #-8]
	ldp	x29, x30, [sp, #208]            ; 16-byte Folded Reload
	add	sp, sp, #224
	ret
LBB27_27:
	ldr	x0, [sp, #80]
	bl	__Unwind_Resume
LBB27_28:
Ltmp106:
	bl	___clang_call_terminate
; %bb.29:
Lfunc_end2:
	.cfi_endproc
	.section	__TEXT,__gcc_except_tab
	.p2align	2
GCC_except_table27:
Lexception2:
	.byte	255                             ; @LPStart Encoding = omit
	.byte	155                             ; @TType Encoding = indirect pcrel sdata4
	.uleb128 Lttbase2-Lttbaseref2
Lttbaseref2:
	.byte	1                               ; Call site Encoding = uleb128
	.uleb128 Lcst_end2-Lcst_begin2
Lcst_begin2:
	.uleb128 Lfunc_begin2-Lfunc_begin2      ; >> Call Site 1 <<
	.uleb128 Ltmp97-Lfunc_begin2            ;   Call between Lfunc_begin2 and Ltmp97
	.byte	0                               ;     has no landing pad
	.byte	0                               ;   On action: cleanup
	.uleb128 Ltmp97-Lfunc_begin2            ; >> Call Site 2 <<
	.uleb128 Ltmp102-Ltmp97                 ;   Call between Ltmp97 and Ltmp102
	.uleb128 Ltmp103-Lfunc_begin2           ;     jumps to Ltmp103
	.byte	0                               ;   On action: cleanup
	.uleb128 Ltmp104-Lfunc_begin2           ; >> Call Site 3 <<
	.uleb128 Ltmp105-Ltmp104                ;   Call between Ltmp104 and Ltmp105
	.uleb128 Ltmp106-Lfunc_begin2           ;     jumps to Ltmp106
	.byte	1                               ;   On action: 1
	.uleb128 Ltmp105-Lfunc_begin2           ; >> Call Site 4 <<
	.uleb128 Lfunc_end2-Ltmp105             ;   Call between Ltmp105 and Lfunc_end2
	.byte	0                               ;     has no landing pad
	.byte	0                               ;   On action: cleanup
Lcst_end2:
	.byte	1                               ; >> Action Record 1 <<
                                        ;   Catch TypeInfo 1
	.byte	0                               ;   No further actions
	.p2align	2
                                        ; >> Catch TypeInfos <<
	.long	0                               ; TypeInfo 1
Lttbase2:
	.p2align	2
                                        ; -- End function
	.section	__TEXT,__text,regular,pure_instructions
	.p2align	2                               ; -- Begin function _ZNSt3__119ostreambuf_iteratorIcNS_11char_traitsIcEEEC1ERNS_13basic_ostreamIcS2_EE
__ZNSt3__119ostreambuf_iteratorIcNS_11char_traitsIcEEEC1ERNS_13basic_ostreamIcS2_EE: ; @_ZNSt3__119ostreambuf_iteratorIcNS_11char_traitsIcEEEC1ERNS_13basic_ostreamIcS2_EE
	.cfi_startproc
; %bb.0:
	sub	sp, sp, #48
	stp	x29, x30, [sp, #32]             ; 16-byte Folded Spill
	add	x29, sp, #32
	.cfi_def_cfa w29, 16
	.cfi_offset w30, -8
	.cfi_offset w29, -16
	stur	x0, [x29, #-8]
	str	x1, [sp, #16]
	ldur	x0, [x29, #-8]
	str	x0, [sp, #8]                    ; 8-byte Folded Spill
	ldr	x1, [sp, #16]
	bl	__ZNSt3__119ostreambuf_iteratorIcNS_11char_traitsIcEEEC2ERNS_13basic_ostreamIcS2_EE
	ldr	x0, [sp, #8]                    ; 8-byte Folded Reload
	ldp	x29, x30, [sp, #32]             ; 16-byte Folded Reload
	add	sp, sp, #48
	ret
	.cfi_endproc
                                        ; -- End function
	.p2align	2                               ; -- Begin function _ZNKSt3__18ios_base5flagsEv
__ZNKSt3__18ios_base5flagsEv:           ; @_ZNKSt3__18ios_base5flagsEv
	.cfi_startproc
; %bb.0:
	sub	sp, sp, #16
	.cfi_def_cfa_offset 16
	str	x0, [sp, #8]
	ldr	x8, [sp, #8]
	ldr	w0, [x8, #8]
	add	sp, sp, #16
	ret
	.cfi_endproc
                                        ; -- End function
	.p2align	2                               ; -- Begin function _ZNKSt3__19basic_iosIcNS_11char_traitsIcEEE4fillEv
__ZNKSt3__19basic_iosIcNS_11char_traitsIcEEE4fillEv: ; @_ZNKSt3__19basic_iosIcNS_11char_traitsIcEEE4fillEv
	.cfi_startproc
; %bb.0:
	sub	sp, sp, #32
	stp	x29, x30, [sp, #16]             ; 16-byte Folded Spill
	add	x29, sp, #16
	.cfi_def_cfa w29, 16
	.cfi_offset w30, -8
	.cfi_offset w29, -16
	str	x0, [sp, #8]
	ldr	x8, [sp, #8]
	str	x8, [sp]                        ; 8-byte Folded Spill
	bl	__ZNSt3__111char_traitsIcE3eofEv
	ldr	x8, [sp]                        ; 8-byte Folded Reload
	ldr	w1, [x8, #144]
	bl	__ZNSt3__111char_traitsIcE11eq_int_typeEii
	tbz	w0, #0, LBB30_2
	b	LBB30_1
LBB30_1:
	ldr	x0, [sp]                        ; 8-byte Folded Reload
	mov	w1, #32
	bl	__ZNKSt3__19basic_iosIcNS_11char_traitsIcEEE5widenEc
	ldr	x9, [sp]                        ; 8-byte Folded Reload
	sxtb	w8, w0
	str	w8, [x9, #144]
	b	LBB30_2
LBB30_2:
	ldr	x8, [sp]                        ; 8-byte Folded Reload
	ldr	w8, [x8, #144]
	sxtb	w0, w8
	ldp	x29, x30, [sp, #16]             ; 16-byte Folded Reload
	add	sp, sp, #32
	ret
	.cfi_endproc
                                        ; -- End function
	.p2align	2                               ; -- Begin function _ZNKSt3__119ostreambuf_iteratorIcNS_11char_traitsIcEEE6failedEv
__ZNKSt3__119ostreambuf_iteratorIcNS_11char_traitsIcEEE6failedEv: ; @_ZNKSt3__119ostreambuf_iteratorIcNS_11char_traitsIcEEE6failedEv
Lfunc_begin3:
	.cfi_startproc
	.cfi_personality 155, ___gxx_personality_v0
	.cfi_lsda 16, Lexception3
; %bb.0:
	sub	sp, sp, #64
	stp	x29, x30, [sp, #48]             ; 16-byte Folded Spill
	add	x29, sp, #48
	.cfi_def_cfa w29, 16
	.cfi_offset w30, -8
	.cfi_offset w29, -16
	stur	x0, [x29, #-8]
	ldur	x8, [x29, #-8]
	ldr	x8, [x8]
	str	x8, [sp]                        ; 8-byte Folded Spill
Ltmp108:
	bl	__ZNSt3__1L15__get_nullptr_tEv
	str	x0, [sp, #8]                    ; 8-byte Folded Spill
Ltmp109:
	b	LBB31_1
LBB31_1:
	ldr	x8, [sp, #8]                    ; 8-byte Folded Reload
	sub	x0, x29, #16
	stur	x8, [x29, #-16]
	bl	__ZNKSt3__19nullptr_tcvPT_INS_15basic_streambufIcNS_11char_traitsIcEEEEEEv
	ldr	x8, [sp]                        ; 8-byte Folded Reload
	subs	x8, x8, x0
	cset	w8, eq
	and	w0, w8, #0x1
	ldp	x29, x30, [sp, #48]             ; 16-byte Folded Reload
	add	sp, sp, #64
	ret
LBB31_2:
Ltmp110:
	mov	x8, x1
	str	x0, [sp, #24]
	str	w8, [sp, #20]
	b	LBB31_3
LBB31_3:
	ldr	x0, [sp, #24]
	bl	___cxa_call_unexpected
Lfunc_end3:
	.cfi_endproc
	.section	__TEXT,__gcc_except_tab
	.p2align	2
GCC_except_table31:
Lexception3:
	.byte	255                             ; @LPStart Encoding = omit
	.byte	155                             ; @TType Encoding = indirect pcrel sdata4
	.uleb128 Lttbase3-Lttbaseref3
Lttbaseref3:
	.byte	1                               ; Call site Encoding = uleb128
	.uleb128 Lcst_end3-Lcst_begin3
Lcst_begin3:
	.uleb128 Ltmp108-Lfunc_begin3           ; >> Call Site 1 <<
	.uleb128 Ltmp109-Ltmp108                ;   Call between Ltmp108 and Ltmp109
	.uleb128 Ltmp110-Lfunc_begin3           ;     jumps to Ltmp110
	.byte	1                               ;   On action: 1
	.uleb128 Ltmp109-Lfunc_begin3           ; >> Call Site 2 <<
	.uleb128 Lfunc_end3-Ltmp109             ;   Call between Ltmp109 and Lfunc_end3
	.byte	0                               ;     has no landing pad
	.byte	0                               ;   On action: cleanup
Lcst_end3:
	.byte	127                             ; >> Action Record 1 <<
                                        ;   Filter TypeInfo -1
	.byte	0                               ;   No further actions
	.p2align	2
Lttbase3:
                                        ; >> Filter TypeInfos <<
	.byte	0
	.p2align	2
                                        ; -- End function
	.section	__TEXT,__text,regular,pure_instructions
	.p2align	2                               ; -- Begin function _ZNSt3__19basic_iosIcNS_11char_traitsIcEEE8setstateEj
__ZNSt3__19basic_iosIcNS_11char_traitsIcEEE8setstateEj: ; @_ZNSt3__19basic_iosIcNS_11char_traitsIcEEE8setstateEj
	.cfi_startproc
; %bb.0:
	sub	sp, sp, #32
	stp	x29, x30, [sp, #16]             ; 16-byte Folded Spill
	add	x29, sp, #16
	.cfi_def_cfa w29, 16
	.cfi_offset w30, -8
	.cfi_offset w29, -16
	str	x0, [sp, #8]
	str	w1, [sp, #4]
	ldr	x0, [sp, #8]
	ldr	w1, [sp, #4]
	bl	__ZNSt3__18ios_base8setstateEj
	ldp	x29, x30, [sp, #16]             ; 16-byte Folded Reload
	add	sp, sp, #32
	ret
	.cfi_endproc
                                        ; -- End function
	.p2align	2                               ; -- Begin function _ZNSt3__1L15__get_nullptr_tEv
__ZNSt3__1L15__get_nullptr_tEv:         ; @_ZNSt3__1L15__get_nullptr_tEv
	.cfi_startproc
; %bb.0:
	sub	sp, sp, #32
	stp	x29, x30, [sp, #16]             ; 16-byte Folded Spill
	add	x29, sp, #16
	.cfi_def_cfa w29, 16
	.cfi_offset w30, -8
	.cfi_offset w29, -16
	add	x0, sp, #8
	mov	x1, #-1
	bl	__ZNSt3__19nullptr_tC1EMNS0_5__natEi
	ldr	x0, [sp, #8]
	ldp	x29, x30, [sp, #16]             ; 16-byte Folded Reload
	add	sp, sp, #32
	ret
	.cfi_endproc
                                        ; -- End function
	.p2align	2                               ; -- Begin function _ZNKSt3__19nullptr_tcvPT_INS_15basic_streambufIcNS_11char_traitsIcEEEEEEv
__ZNKSt3__19nullptr_tcvPT_INS_15basic_streambufIcNS_11char_traitsIcEEEEEEv: ; @_ZNKSt3__19nullptr_tcvPT_INS_15basic_streambufIcNS_11char_traitsIcEEEEEEv
	.cfi_startproc
; %bb.0:
	sub	sp, sp, #16
	.cfi_def_cfa_offset 16
	str	x0, [sp, #8]
	mov	x0, #0
	add	sp, sp, #16
	ret
	.cfi_endproc
                                        ; -- End function
	.p2align	2                               ; -- Begin function _ZNKSt3__18ios_base5widthEv
__ZNKSt3__18ios_base5widthEv:           ; @_ZNKSt3__18ios_base5widthEv
	.cfi_startproc
; %bb.0:
	sub	sp, sp, #16
	.cfi_def_cfa_offset 16
	str	x0, [sp, #8]
	ldr	x8, [sp, #8]
	ldr	x0, [x8, #24]
	add	sp, sp, #16
	ret
	.cfi_endproc
                                        ; -- End function
	.p2align	2                               ; -- Begin function _ZNSt3__115basic_streambufIcNS_11char_traitsIcEEE5sputnEPKcl
__ZNSt3__115basic_streambufIcNS_11char_traitsIcEEE5sputnEPKcl: ; @_ZNSt3__115basic_streambufIcNS_11char_traitsIcEEE5sputnEPKcl
	.cfi_startproc
; %bb.0:
	sub	sp, sp, #48
	stp	x29, x30, [sp, #32]             ; 16-byte Folded Spill
	add	x29, sp, #32
	.cfi_def_cfa w29, 16
	.cfi_offset w30, -8
	.cfi_offset w29, -16
	stur	x0, [x29, #-8]
	str	x1, [sp, #16]
	str	x2, [sp, #8]
	ldur	x0, [x29, #-8]
	ldr	x1, [sp, #16]
	ldr	x2, [sp, #8]
	ldr	x8, [x0]
	ldr	x8, [x8, #96]
	blr	x8
	ldp	x29, x30, [sp, #32]             ; 16-byte Folded Reload
	add	sp, sp, #48
	ret
	.cfi_endproc
                                        ; -- End function
	.p2align	2                               ; -- Begin function _ZNSt3__112basic_stringIcNS_11char_traitsIcEENS_9allocatorIcEEEC1Emc
__ZNSt3__112basic_stringIcNS_11char_traitsIcEENS_9allocatorIcEEEC1Emc: ; @_ZNSt3__112basic_stringIcNS_11char_traitsIcEENS_9allocatorIcEEEC1Emc
	.cfi_startproc
; %bb.0:
	sub	sp, sp, #48
	stp	x29, x30, [sp, #32]             ; 16-byte Folded Spill
	add	x29, sp, #32
	.cfi_def_cfa w29, 16
	.cfi_offset w30, -8
	.cfi_offset w29, -16
	stur	x0, [x29, #-8]
	str	x1, [sp, #16]
	strb	w2, [sp, #15]
	ldur	x0, [x29, #-8]
	str	x0, [sp]                        ; 8-byte Folded Spill
	ldr	x1, [sp, #16]
	ldrsb	w2, [sp, #15]
	bl	__ZNSt3__112basic_stringIcNS_11char_traitsIcEENS_9allocatorIcEEEC2Emc
	ldr	x0, [sp]                        ; 8-byte Folded Reload
	ldp	x29, x30, [sp, #32]             ; 16-byte Folded Reload
	add	sp, sp, #48
	ret
	.cfi_endproc
                                        ; -- End function
	.p2align	2                               ; -- Begin function _ZNKSt3__112basic_stringIcNS_11char_traitsIcEENS_9allocatorIcEEE4dataEv
__ZNKSt3__112basic_stringIcNS_11char_traitsIcEENS_9allocatorIcEEE4dataEv: ; @_ZNKSt3__112basic_stringIcNS_11char_traitsIcEENS_9allocatorIcEEE4dataEv
	.cfi_startproc
; %bb.0:
	sub	sp, sp, #32
	stp	x29, x30, [sp, #16]             ; 16-byte Folded Spill
	add	x29, sp, #16
	.cfi_def_cfa w29, 16
	.cfi_offset w30, -8
	.cfi_offset w29, -16
	str	x0, [sp, #8]
	ldr	x0, [sp, #8]
	bl	__ZNKSt3__112basic_stringIcNS_11char_traitsIcEENS_9allocatorIcEEE13__get_pointerEv
	bl	__ZNSt3__1L12__to_addressIKcEEPT_S3_
	ldp	x29, x30, [sp, #16]             ; 16-byte Folded Reload
	add	sp, sp, #32
	ret
	.cfi_endproc
                                        ; -- End function
	.p2align	2                               ; -- Begin function _ZNSt3__18ios_base5widthEl
__ZNSt3__18ios_base5widthEl:            ; @_ZNSt3__18ios_base5widthEl
	.cfi_startproc
; %bb.0:
	sub	sp, sp, #32
	.cfi_def_cfa_offset 32
	str	x0, [sp, #24]
	str	x1, [sp, #16]
	ldr	x9, [sp, #24]
	ldr	x8, [x9, #24]
	str	x8, [sp, #8]
	ldr	x8, [sp, #16]
	str	x8, [x9, #24]
	ldr	x0, [sp, #8]
	add	sp, sp, #32
	ret
	.cfi_endproc
                                        ; -- End function
	.p2align	2                               ; -- Begin function _ZNSt3__19nullptr_tC1EMNS0_5__natEi
__ZNSt3__19nullptr_tC1EMNS0_5__natEi:   ; @_ZNSt3__19nullptr_tC1EMNS0_5__natEi
	.cfi_startproc
; %bb.0:
	sub	sp, sp, #48
	stp	x29, x30, [sp, #32]             ; 16-byte Folded Spill
	add	x29, sp, #32
	.cfi_def_cfa w29, 16
	.cfi_offset w30, -8
	.cfi_offset w29, -16
	stur	x0, [x29, #-8]
	str	x1, [sp, #16]
	ldur	x0, [x29, #-8]
	str	x0, [sp, #8]                    ; 8-byte Folded Spill
	ldr	x1, [sp, #16]
	bl	__ZNSt3__19nullptr_tC2EMNS0_5__natEi
	ldr	x0, [sp, #8]                    ; 8-byte Folded Reload
	ldp	x29, x30, [sp, #32]             ; 16-byte Folded Reload
	add	sp, sp, #48
	ret
	.cfi_endproc
                                        ; -- End function
	.p2align	2                               ; -- Begin function _ZNSt3__19nullptr_tC2EMNS0_5__natEi
__ZNSt3__19nullptr_tC2EMNS0_5__natEi:   ; @_ZNSt3__19nullptr_tC2EMNS0_5__natEi
	.cfi_startproc
; %bb.0:
	sub	sp, sp, #16
	.cfi_def_cfa_offset 16
	str	x0, [sp, #8]
	str	x1, [sp]
	ldr	x0, [sp, #8]
                                        ; kill: def $x8 killed $xzr
	str	xzr, [x0]
	add	sp, sp, #16
	ret
	.cfi_endproc
                                        ; -- End function
	.p2align	2                               ; -- Begin function _ZNSt3__112basic_stringIcNS_11char_traitsIcEENS_9allocatorIcEEEC2Emc
__ZNSt3__112basic_stringIcNS_11char_traitsIcEENS_9allocatorIcEEEC2Emc: ; @_ZNSt3__112basic_stringIcNS_11char_traitsIcEENS_9allocatorIcEEEC2Emc
	.cfi_startproc
; %bb.0:
	sub	sp, sp, #48
	stp	x29, x30, [sp, #32]             ; 16-byte Folded Spill
	add	x29, sp, #32
	.cfi_def_cfa w29, 16
	.cfi_offset w30, -8
	.cfi_offset w29, -16
	stur	x0, [x29, #-8]
	str	x1, [sp, #16]
	strb	w2, [sp, #15]
	ldur	x0, [x29, #-8]
	str	x0, [sp]                        ; 8-byte Folded Spill
	add	x1, sp, #14
	add	x2, sp, #13
	bl	__ZNSt3__117__compressed_pairINS_12basic_stringIcNS_11char_traitsIcEENS_9allocatorIcEEE5__repES5_EC1INS_18__default_init_tagESA_EEOT_OT0_
	ldr	x0, [sp]                        ; 8-byte Folded Reload
	ldr	x1, [sp, #16]
	ldrsb	w2, [sp, #15]
	bl	__ZNSt3__112basic_stringIcNS_11char_traitsIcEENS_9allocatorIcEEE6__initEmc
	ldr	x0, [sp]                        ; 8-byte Folded Reload
	ldp	x29, x30, [sp, #32]             ; 16-byte Folded Reload
	add	sp, sp, #48
	ret
	.cfi_endproc
                                        ; -- End function
	.p2align	2                               ; -- Begin function _ZNSt3__1L12__to_addressIKcEEPT_S3_
__ZNSt3__1L12__to_addressIKcEEPT_S3_:   ; @_ZNSt3__1L12__to_addressIKcEEPT_S3_
	.cfi_startproc
; %bb.0:
	sub	sp, sp, #16
	.cfi_def_cfa_offset 16
	str	x0, [sp, #8]
	ldr	x0, [sp, #8]
	add	sp, sp, #16
	ret
	.cfi_endproc
                                        ; -- End function
	.p2align	2                               ; -- Begin function _ZNKSt3__112basic_stringIcNS_11char_traitsIcEENS_9allocatorIcEEE13__get_pointerEv
__ZNKSt3__112basic_stringIcNS_11char_traitsIcEENS_9allocatorIcEEE13__get_pointerEv: ; @_ZNKSt3__112basic_stringIcNS_11char_traitsIcEENS_9allocatorIcEEE13__get_pointerEv
	.cfi_startproc
; %bb.0:
	sub	sp, sp, #48
	stp	x29, x30, [sp, #32]             ; 16-byte Folded Spill
	add	x29, sp, #32
	.cfi_def_cfa w29, 16
	.cfi_offset w30, -8
	.cfi_offset w29, -16
	stur	x0, [x29, #-8]
	ldur	x0, [x29, #-8]
	str	x0, [sp, #16]                   ; 8-byte Folded Spill
	bl	__ZNKSt3__112basic_stringIcNS_11char_traitsIcEENS_9allocatorIcEEE9__is_longEv
	tbz	w0, #0, LBB44_2
	b	LBB44_1
LBB44_1:
	ldr	x0, [sp, #16]                   ; 8-byte Folded Reload
	bl	__ZNKSt3__112basic_stringIcNS_11char_traitsIcEENS_9allocatorIcEEE18__get_long_pointerEv
	str	x0, [sp, #8]                    ; 8-byte Folded Spill
	b	LBB44_3
LBB44_2:
	ldr	x0, [sp, #16]                   ; 8-byte Folded Reload
	bl	__ZNKSt3__112basic_stringIcNS_11char_traitsIcEENS_9allocatorIcEEE19__get_short_pointerEv
	str	x0, [sp, #8]                    ; 8-byte Folded Spill
	b	LBB44_3
LBB44_3:
	ldr	x0, [sp, #8]                    ; 8-byte Folded Reload
	ldp	x29, x30, [sp, #32]             ; 16-byte Folded Reload
	add	sp, sp, #48
	ret
	.cfi_endproc
                                        ; -- End function
	.p2align	2                               ; -- Begin function _ZNKSt3__112basic_stringIcNS_11char_traitsIcEENS_9allocatorIcEEE9__is_longEv
__ZNKSt3__112basic_stringIcNS_11char_traitsIcEENS_9allocatorIcEEE9__is_longEv: ; @_ZNKSt3__112basic_stringIcNS_11char_traitsIcEENS_9allocatorIcEEE9__is_longEv
	.cfi_startproc
; %bb.0:
	sub	sp, sp, #32
	stp	x29, x30, [sp, #16]             ; 16-byte Folded Spill
	add	x29, sp, #16
	.cfi_def_cfa w29, 16
	.cfi_offset w30, -8
	.cfi_offset w29, -16
	str	x0, [sp, #8]
	ldr	x0, [sp, #8]
	bl	__ZNKSt3__117__compressed_pairINS_12basic_stringIcNS_11char_traitsIcEENS_9allocatorIcEEE5__repES5_E5firstEv
	ldrb	w8, [x0, #23]
                                        ; kill: def $x8 killed $w8
	ands	x8, x8, #0x80
	cset	w8, ne
	and	w0, w8, #0x1
	ldp	x29, x30, [sp, #16]             ; 16-byte Folded Reload
	add	sp, sp, #32
	ret
	.cfi_endproc
                                        ; -- End function
	.p2align	2                               ; -- Begin function _ZNKSt3__112basic_stringIcNS_11char_traitsIcEENS_9allocatorIcEEE18__get_long_pointerEv
__ZNKSt3__112basic_stringIcNS_11char_traitsIcEENS_9allocatorIcEEE18__get_long_pointerEv: ; @_ZNKSt3__112basic_stringIcNS_11char_traitsIcEENS_9allocatorIcEEE18__get_long_pointerEv
	.cfi_startproc
; %bb.0:
	sub	sp, sp, #32
	stp	x29, x30, [sp, #16]             ; 16-byte Folded Spill
	add	x29, sp, #16
	.cfi_def_cfa w29, 16
	.cfi_offset w30, -8
	.cfi_offset w29, -16
	str	x0, [sp, #8]
	ldr	x0, [sp, #8]
	bl	__ZNKSt3__117__compressed_pairINS_12basic_stringIcNS_11char_traitsIcEENS_9allocatorIcEEE5__repES5_E5firstEv
	ldr	x0, [x0]
	ldp	x29, x30, [sp, #16]             ; 16-byte Folded Reload
	add	sp, sp, #32
	ret
	.cfi_endproc
                                        ; -- End function
	.p2align	2                               ; -- Begin function _ZNKSt3__112basic_stringIcNS_11char_traitsIcEENS_9allocatorIcEEE19__get_short_pointerEv
__ZNKSt3__112basic_stringIcNS_11char_traitsIcEENS_9allocatorIcEEE19__get_short_pointerEv: ; @_ZNKSt3__112basic_stringIcNS_11char_traitsIcEENS_9allocatorIcEEE19__get_short_pointerEv
	.cfi_startproc
; %bb.0:
	sub	sp, sp, #32
	stp	x29, x30, [sp, #16]             ; 16-byte Folded Spill
	add	x29, sp, #16
	.cfi_def_cfa w29, 16
	.cfi_offset w30, -8
	.cfi_offset w29, -16
	str	x0, [sp, #8]
	ldr	x0, [sp, #8]
	bl	__ZNKSt3__117__compressed_pairINS_12basic_stringIcNS_11char_traitsIcEENS_9allocatorIcEEE5__repES5_E5firstEv
	bl	__ZNSt3__114pointer_traitsIPKcE10pointer_toERS1_
	ldp	x29, x30, [sp, #16]             ; 16-byte Folded Reload
	add	sp, sp, #32
	ret
	.cfi_endproc
                                        ; -- End function
	.p2align	2                               ; -- Begin function _ZNKSt3__117__compressed_pairINS_12basic_stringIcNS_11char_traitsIcEENS_9allocatorIcEEE5__repES5_E5firstEv
__ZNKSt3__117__compressed_pairINS_12basic_stringIcNS_11char_traitsIcEENS_9allocatorIcEEE5__repES5_E5firstEv: ; @_ZNKSt3__117__compressed_pairINS_12basic_stringIcNS_11char_traitsIcEENS_9allocatorIcEEE5__repES5_E5firstEv
	.cfi_startproc
; %bb.0:
	sub	sp, sp, #32
	stp	x29, x30, [sp, #16]             ; 16-byte Folded Spill
	add	x29, sp, #16
	.cfi_def_cfa w29, 16
	.cfi_offset w30, -8
	.cfi_offset w29, -16
	str	x0, [sp, #8]
	ldr	x0, [sp, #8]
	bl	__ZNKSt3__122__compressed_pair_elemINS_12basic_stringIcNS_11char_traitsIcEENS_9allocatorIcEEE5__repELi0ELb0EE5__getEv
	ldp	x29, x30, [sp, #16]             ; 16-byte Folded Reload
	add	sp, sp, #32
	ret
	.cfi_endproc
                                        ; -- End function
	.p2align	2                               ; -- Begin function _ZNKSt3__122__compressed_pair_elemINS_12basic_stringIcNS_11char_traitsIcEENS_9allocatorIcEEE5__repELi0ELb0EE5__getEv
__ZNKSt3__122__compressed_pair_elemINS_12basic_stringIcNS_11char_traitsIcEENS_9allocatorIcEEE5__repELi0ELb0EE5__getEv: ; @_ZNKSt3__122__compressed_pair_elemINS_12basic_stringIcNS_11char_traitsIcEENS_9allocatorIcEEE5__repELi0ELb0EE5__getEv
	.cfi_startproc
; %bb.0:
	sub	sp, sp, #16
	.cfi_def_cfa_offset 16
	str	x0, [sp, #8]
	ldr	x0, [sp, #8]
	add	sp, sp, #16
	ret
	.cfi_endproc
                                        ; -- End function
	.p2align	2                               ; -- Begin function _ZNSt3__114pointer_traitsIPKcE10pointer_toERS1_
__ZNSt3__114pointer_traitsIPKcE10pointer_toERS1_: ; @_ZNSt3__114pointer_traitsIPKcE10pointer_toERS1_
	.cfi_startproc
; %bb.0:
	sub	sp, sp, #32
	stp	x29, x30, [sp, #16]             ; 16-byte Folded Spill
	add	x29, sp, #16
	.cfi_def_cfa w29, 16
	.cfi_offset w30, -8
	.cfi_offset w29, -16
	str	x0, [sp, #8]
	ldr	x0, [sp, #8]
	bl	__ZNSt3__1L9addressofIKcEEPT_RS2_
	ldp	x29, x30, [sp, #16]             ; 16-byte Folded Reload
	add	sp, sp, #32
	ret
	.cfi_endproc
                                        ; -- End function
	.p2align	2                               ; -- Begin function _ZNSt3__1L9addressofIKcEEPT_RS2_
__ZNSt3__1L9addressofIKcEEPT_RS2_:      ; @_ZNSt3__1L9addressofIKcEEPT_RS2_
	.cfi_startproc
; %bb.0:
	sub	sp, sp, #16
	.cfi_def_cfa_offset 16
	str	x0, [sp, #8]
	ldr	x0, [sp, #8]
	add	sp, sp, #16
	ret
	.cfi_endproc
                                        ; -- End function
	.p2align	2                               ; -- Begin function _ZNSt3__119ostreambuf_iteratorIcNS_11char_traitsIcEEEC2ERNS_13basic_ostreamIcS2_EE
__ZNSt3__119ostreambuf_iteratorIcNS_11char_traitsIcEEEC2ERNS_13basic_ostreamIcS2_EE: ; @_ZNSt3__119ostreambuf_iteratorIcNS_11char_traitsIcEEEC2ERNS_13basic_ostreamIcS2_EE
Lfunc_begin4:
	.cfi_startproc
	.cfi_personality 155, ___gxx_personality_v0
	.cfi_lsda 16, Lexception4
; %bb.0:
	sub	sp, sp, #64
	stp	x29, x30, [sp, #48]             ; 16-byte Folded Spill
	add	x29, sp, #48
	.cfi_def_cfa w29, 16
	.cfi_offset w30, -8
	.cfi_offset w29, -16
	stur	x0, [x29, #-8]
	stur	x1, [x29, #-16]
	ldur	x8, [x29, #-8]
	str	x8, [sp]                        ; 8-byte Folded Spill
	ldur	x8, [x29, #-16]
	ldr	x9, [x8]
	ldur	x9, [x9, #-24]
Ltmp118:
	add	x0, x8, x9
	bl	__ZNKSt3__19basic_iosIcNS_11char_traitsIcEEE5rdbufEv
	str	x0, [sp, #8]                    ; 8-byte Folded Spill
Ltmp119:
	b	LBB52_1
LBB52_1:
	ldr	x0, [sp]                        ; 8-byte Folded Reload
	ldr	x8, [sp, #8]                    ; 8-byte Folded Reload
	str	x8, [x0]
	ldp	x29, x30, [sp, #48]             ; 16-byte Folded Reload
	add	sp, sp, #64
	ret
LBB52_2:
Ltmp120:
	mov	x8, x1
	str	x0, [sp, #24]
	str	w8, [sp, #20]
	b	LBB52_3
LBB52_3:
	ldr	x0, [sp, #24]
	bl	___cxa_call_unexpected
Lfunc_end4:
	.cfi_endproc
	.section	__TEXT,__gcc_except_tab
	.p2align	2
GCC_except_table52:
Lexception4:
	.byte	255                             ; @LPStart Encoding = omit
	.byte	155                             ; @TType Encoding = indirect pcrel sdata4
	.uleb128 Lttbase4-Lttbaseref4
Lttbaseref4:
	.byte	1                               ; Call site Encoding = uleb128
	.uleb128 Lcst_end4-Lcst_begin4
Lcst_begin4:
	.uleb128 Ltmp118-Lfunc_begin4           ; >> Call Site 1 <<
	.uleb128 Ltmp119-Ltmp118                ;   Call between Ltmp118 and Ltmp119
	.uleb128 Ltmp120-Lfunc_begin4           ;     jumps to Ltmp120
	.byte	1                               ;   On action: 1
	.uleb128 Ltmp119-Lfunc_begin4           ; >> Call Site 2 <<
	.uleb128 Lfunc_end4-Ltmp119             ;   Call between Ltmp119 and Lfunc_end4
	.byte	0                               ;     has no landing pad
	.byte	0                               ;   On action: cleanup
Lcst_end4:
	.byte	127                             ; >> Action Record 1 <<
                                        ;   Filter TypeInfo -1
	.byte	0                               ;   No further actions
	.p2align	2
Lttbase4:
                                        ; >> Filter TypeInfos <<
	.byte	0
	.p2align	2
                                        ; -- End function
	.section	__TEXT,__text,regular,pure_instructions
	.p2align	2                               ; -- Begin function _ZNKSt3__19basic_iosIcNS_11char_traitsIcEEE5rdbufEv
__ZNKSt3__19basic_iosIcNS_11char_traitsIcEEE5rdbufEv: ; @_ZNKSt3__19basic_iosIcNS_11char_traitsIcEEE5rdbufEv
	.cfi_startproc
; %bb.0:
	sub	sp, sp, #32
	stp	x29, x30, [sp, #16]             ; 16-byte Folded Spill
	add	x29, sp, #16
	.cfi_def_cfa w29, 16
	.cfi_offset w30, -8
	.cfi_offset w29, -16
	str	x0, [sp, #8]
	ldr	x0, [sp, #8]
	bl	__ZNKSt3__18ios_base5rdbufEv
	ldp	x29, x30, [sp, #16]             ; 16-byte Folded Reload
	add	sp, sp, #32
	ret
	.cfi_endproc
                                        ; -- End function
	.p2align	2                               ; -- Begin function _ZNKSt3__18ios_base5rdbufEv
__ZNKSt3__18ios_base5rdbufEv:           ; @_ZNKSt3__18ios_base5rdbufEv
	.cfi_startproc
; %bb.0:
	sub	sp, sp, #16
	.cfi_def_cfa_offset 16
	str	x0, [sp, #8]
	ldr	x8, [sp, #8]
	ldr	x0, [x8, #40]
	add	sp, sp, #16
	ret
	.cfi_endproc
                                        ; -- End function
	.globl	__ZNSt3__111char_traitsIcE11eq_int_typeEii ; -- Begin function _ZNSt3__111char_traitsIcE11eq_int_typeEii
	.weak_definition	__ZNSt3__111char_traitsIcE11eq_int_typeEii
	.p2align	2
__ZNSt3__111char_traitsIcE11eq_int_typeEii: ; @_ZNSt3__111char_traitsIcE11eq_int_typeEii
	.cfi_startproc
; %bb.0:
	sub	sp, sp, #16
	.cfi_def_cfa_offset 16
	str	w0, [sp, #12]
	str	w1, [sp, #8]
	ldr	w8, [sp, #12]
	ldr	w9, [sp, #8]
	subs	w8, w8, w9
	cset	w8, eq
	and	w0, w8, #0x1
	add	sp, sp, #16
	ret
	.cfi_endproc
                                        ; -- End function
	.globl	__ZNSt3__111char_traitsIcE3eofEv ; -- Begin function _ZNSt3__111char_traitsIcE3eofEv
	.weak_definition	__ZNSt3__111char_traitsIcE3eofEv
	.p2align	2
__ZNSt3__111char_traitsIcE3eofEv:       ; @_ZNSt3__111char_traitsIcE3eofEv
	.cfi_startproc
; %bb.0:
	mov	w0, #-1
	ret
	.cfi_endproc
                                        ; -- End function
	.p2align	2                               ; -- Begin function _ZNKSt3__19basic_iosIcNS_11char_traitsIcEEE5widenEc
__ZNKSt3__19basic_iosIcNS_11char_traitsIcEEE5widenEc: ; @_ZNKSt3__19basic_iosIcNS_11char_traitsIcEEE5widenEc
Lfunc_begin5:
	.cfi_startproc
	.cfi_personality 155, ___gxx_personality_v0
	.cfi_lsda 16, Lexception5
; %bb.0:
	sub	sp, sp, #80
	stp	x29, x30, [sp, #64]             ; 16-byte Folded Spill
	add	x29, sp, #64
	.cfi_def_cfa w29, 16
	.cfi_offset w30, -8
	.cfi_offset w29, -16
	stur	x0, [x29, #-8]
	sturb	w1, [x29, #-9]
	ldur	x0, [x29, #-8]
	sub	x8, x29, #24
	str	x8, [sp, #8]                    ; 8-byte Folded Spill
	bl	__ZNKSt3__18ios_base6getlocEv
	ldr	x0, [sp, #8]                    ; 8-byte Folded Reload
Ltmp123:
	bl	__ZNSt3__1L9use_facetINS_5ctypeIcEEEERKT_RKNS_6localeE
	str	x0, [sp, #16]                   ; 8-byte Folded Spill
Ltmp124:
	b	LBB57_1
LBB57_1:
	ldr	x0, [sp, #16]                   ; 8-byte Folded Reload
	ldursb	w1, [x29, #-9]
Ltmp125:
	bl	__ZNKSt3__15ctypeIcE5widenEc
	str	w0, [sp, #4]                    ; 4-byte Folded Spill
Ltmp126:
	b	LBB57_2
LBB57_2:
	sub	x0, x29, #24
	bl	__ZNSt3__16localeD1Ev
	ldr	w8, [sp, #4]                    ; 4-byte Folded Reload
	sxtb	w0, w8
	ldp	x29, x30, [sp, #64]             ; 16-byte Folded Reload
	add	sp, sp, #80
	ret
LBB57_3:
Ltmp127:
	mov	x8, x1
	str	x0, [sp, #32]
	str	w8, [sp, #28]
Ltmp128:
	sub	x0, x29, #24
	bl	__ZNSt3__16localeD1Ev
Ltmp129:
	b	LBB57_4
LBB57_4:
	b	LBB57_5
LBB57_5:
	ldr	x0, [sp, #32]
	bl	__Unwind_Resume
LBB57_6:
Ltmp130:
	bl	___clang_call_terminate
Lfunc_end5:
	.cfi_endproc
	.section	__TEXT,__gcc_except_tab
	.p2align	2
GCC_except_table57:
Lexception5:
	.byte	255                             ; @LPStart Encoding = omit
	.byte	155                             ; @TType Encoding = indirect pcrel sdata4
	.uleb128 Lttbase5-Lttbaseref5
Lttbaseref5:
	.byte	1                               ; Call site Encoding = uleb128
	.uleb128 Lcst_end5-Lcst_begin5
Lcst_begin5:
	.uleb128 Lfunc_begin5-Lfunc_begin5      ; >> Call Site 1 <<
	.uleb128 Ltmp123-Lfunc_begin5           ;   Call between Lfunc_begin5 and Ltmp123
	.byte	0                               ;     has no landing pad
	.byte	0                               ;   On action: cleanup
	.uleb128 Ltmp123-Lfunc_begin5           ; >> Call Site 2 <<
	.uleb128 Ltmp126-Ltmp123                ;   Call between Ltmp123 and Ltmp126
	.uleb128 Ltmp127-Lfunc_begin5           ;     jumps to Ltmp127
	.byte	0                               ;   On action: cleanup
	.uleb128 Ltmp126-Lfunc_begin5           ; >> Call Site 3 <<
	.uleb128 Ltmp128-Ltmp126                ;   Call between Ltmp126 and Ltmp128
	.byte	0                               ;     has no landing pad
	.byte	0                               ;   On action: cleanup
	.uleb128 Ltmp128-Lfunc_begin5           ; >> Call Site 4 <<
	.uleb128 Ltmp129-Ltmp128                ;   Call between Ltmp128 and Ltmp129
	.uleb128 Ltmp130-Lfunc_begin5           ;     jumps to Ltmp130
	.byte	1                               ;   On action: 1
	.uleb128 Ltmp129-Lfunc_begin5           ; >> Call Site 5 <<
	.uleb128 Lfunc_end5-Ltmp129             ;   Call between Ltmp129 and Lfunc_end5
	.byte	0                               ;     has no landing pad
	.byte	0                               ;   On action: cleanup
Lcst_end5:
	.byte	1                               ; >> Action Record 1 <<
                                        ;   Catch TypeInfo 1
	.byte	0                               ;   No further actions
	.p2align	2
                                        ; >> Catch TypeInfos <<
	.long	0                               ; TypeInfo 1
Lttbase5:
	.p2align	2
                                        ; -- End function
	.section	__TEXT,__text,regular,pure_instructions
	.p2align	2                               ; -- Begin function _ZNSt3__1L9use_facetINS_5ctypeIcEEEERKT_RKNS_6localeE
__ZNSt3__1L9use_facetINS_5ctypeIcEEEERKT_RKNS_6localeE: ; @_ZNSt3__1L9use_facetINS_5ctypeIcEEEERKT_RKNS_6localeE
	.cfi_startproc
; %bb.0:
	sub	sp, sp, #32
	stp	x29, x30, [sp, #16]             ; 16-byte Folded Spill
	add	x29, sp, #16
	.cfi_def_cfa w29, 16
	.cfi_offset w30, -8
	.cfi_offset w29, -16
	str	x0, [sp, #8]
	ldr	x0, [sp, #8]
	adrp	x1, __ZNSt3__15ctypeIcE2idE@GOTPAGE
	ldr	x1, [x1, __ZNSt3__15ctypeIcE2idE@GOTPAGEOFF]
	bl	__ZNKSt3__16locale9use_facetERNS0_2idE
	ldp	x29, x30, [sp, #16]             ; 16-byte Folded Reload
	add	sp, sp, #32
	ret
	.cfi_endproc
                                        ; -- End function
	.p2align	2                               ; -- Begin function _ZNKSt3__15ctypeIcE5widenEc
__ZNKSt3__15ctypeIcE5widenEc:           ; @_ZNKSt3__15ctypeIcE5widenEc
	.cfi_startproc
; %bb.0:
	sub	sp, sp, #32
	stp	x29, x30, [sp, #16]             ; 16-byte Folded Spill
	add	x29, sp, #16
	.cfi_def_cfa w29, 16
	.cfi_offset w30, -8
	.cfi_offset w29, -16
	str	x0, [sp, #8]
	strb	w1, [sp, #7]
	ldr	x0, [sp, #8]
	ldrsb	w1, [sp, #7]
	ldr	x8, [x0]
	ldr	x8, [x8, #56]
	blr	x8
	sxtb	w0, w0
	ldp	x29, x30, [sp, #16]             ; 16-byte Folded Reload
	add	sp, sp, #32
	ret
	.cfi_endproc
                                        ; -- End function
	.p2align	2                               ; -- Begin function _ZNSt3__18ios_base8setstateEj
__ZNSt3__18ios_base8setstateEj:         ; @_ZNSt3__18ios_base8setstateEj
	.cfi_startproc
; %bb.0:
	sub	sp, sp, #32
	stp	x29, x30, [sp, #16]             ; 16-byte Folded Spill
	add	x29, sp, #16
	.cfi_def_cfa w29, 16
	.cfi_offset w30, -8
	.cfi_offset w29, -16
	str	x0, [sp, #8]
	str	w1, [sp, #4]
	ldr	x0, [sp, #8]
	ldr	w8, [x0, #32]
	ldr	w9, [sp, #4]
	orr	w1, w8, w9
	bl	__ZNSt3__18ios_base5clearEj
	ldp	x29, x30, [sp, #16]             ; 16-byte Folded Reload
	add	sp, sp, #32
	ret
	.cfi_endproc
                                        ; -- End function
	.p2align	2                               ; -- Begin function _ZNKSt3__112basic_stringIcNS_11char_traitsIcEENS_9allocatorIcEEE4sizeEv
__ZNKSt3__112basic_stringIcNS_11char_traitsIcEENS_9allocatorIcEEE4sizeEv: ; @_ZNKSt3__112basic_stringIcNS_11char_traitsIcEENS_9allocatorIcEEE4sizeEv
	.cfi_startproc
; %bb.0:
	sub	sp, sp, #48
	stp	x29, x30, [sp, #32]             ; 16-byte Folded Spill
	add	x29, sp, #32
	.cfi_def_cfa w29, 16
	.cfi_offset w30, -8
	.cfi_offset w29, -16
	stur	x0, [x29, #-8]
	ldur	x0, [x29, #-8]
	str	x0, [sp, #16]                   ; 8-byte Folded Spill
	bl	__ZNKSt3__112basic_stringIcNS_11char_traitsIcEENS_9allocatorIcEEE9__is_longEv
	tbz	w0, #0, LBB61_2
	b	LBB61_1
LBB61_1:
	ldr	x0, [sp, #16]                   ; 8-byte Folded Reload
	bl	__ZNKSt3__112basic_stringIcNS_11char_traitsIcEENS_9allocatorIcEEE15__get_long_sizeEv
	str	x0, [sp, #8]                    ; 8-byte Folded Spill
	b	LBB61_3
LBB61_2:
	ldr	x0, [sp, #16]                   ; 8-byte Folded Reload
	bl	__ZNKSt3__112basic_stringIcNS_11char_traitsIcEENS_9allocatorIcEEE16__get_short_sizeEv
	str	x0, [sp, #8]                    ; 8-byte Folded Spill
	b	LBB61_3
LBB61_3:
	ldr	x0, [sp, #8]                    ; 8-byte Folded Reload
	ldp	x29, x30, [sp, #32]             ; 16-byte Folded Reload
	add	sp, sp, #48
	ret
	.cfi_endproc
                                        ; -- End function
	.p2align	2                               ; -- Begin function _ZNKSt3__112basic_stringIcNS_11char_traitsIcEENS_9allocatorIcEEE15__get_long_sizeEv
__ZNKSt3__112basic_stringIcNS_11char_traitsIcEENS_9allocatorIcEEE15__get_long_sizeEv: ; @_ZNKSt3__112basic_stringIcNS_11char_traitsIcEENS_9allocatorIcEEE15__get_long_sizeEv
	.cfi_startproc
; %bb.0:
	sub	sp, sp, #32
	stp	x29, x30, [sp, #16]             ; 16-byte Folded Spill
	add	x29, sp, #16
	.cfi_def_cfa w29, 16
	.cfi_offset w30, -8
	.cfi_offset w29, -16
	str	x0, [sp, #8]
	ldr	x0, [sp, #8]
	bl	__ZNKSt3__117__compressed_pairINS_12basic_stringIcNS_11char_traitsIcEENS_9allocatorIcEEE5__repES5_E5firstEv
	ldr	x0, [x0, #8]
	ldp	x29, x30, [sp, #16]             ; 16-byte Folded Reload
	add	sp, sp, #32
	ret
	.cfi_endproc
                                        ; -- End function
	.p2align	2                               ; -- Begin function _ZNKSt3__112basic_stringIcNS_11char_traitsIcEENS_9allocatorIcEEE16__get_short_sizeEv
__ZNKSt3__112basic_stringIcNS_11char_traitsIcEENS_9allocatorIcEEE16__get_short_sizeEv: ; @_ZNKSt3__112basic_stringIcNS_11char_traitsIcEENS_9allocatorIcEEE16__get_short_sizeEv
	.cfi_startproc
; %bb.0:
	sub	sp, sp, #32
	stp	x29, x30, [sp, #16]             ; 16-byte Folded Spill
	add	x29, sp, #16
	.cfi_def_cfa w29, 16
	.cfi_offset w30, -8
	.cfi_offset w29, -16
	str	x0, [sp, #8]
	ldr	x0, [sp, #8]
	bl	__ZNKSt3__117__compressed_pairINS_12basic_stringIcNS_11char_traitsIcEENS_9allocatorIcEEE5__repES5_E5firstEv
	ldrb	w8, [x0, #23]
	mov	x0, x8
	ldp	x29, x30, [sp, #16]             ; 16-byte Folded Reload
	add	sp, sp, #32
	ret
	.cfi_endproc
                                        ; -- End function
	.section	__TEXT,__StaticInit,regular,pure_instructions
	.p2align	2                               ; -- Begin function _GLOBAL__sub_I_lab10.cpp
__GLOBAL__sub_I_lab10.cpp:              ; @_GLOBAL__sub_I_lab10.cpp
	.cfi_startproc
; %bb.0:
	stp	x29, x30, [sp, #-16]!           ; 16-byte Folded Spill
	mov	x29, sp
	.cfi_def_cfa w29, 16
	.cfi_offset w30, -8
	.cfi_offset w29, -16
	bl	___cxx_global_var_init
	ldp	x29, x30, [sp], #16             ; 16-byte Folded Reload
	ret
	.cfi_endproc
                                        ; -- End function
	.globl	_harimau                        ; @harimau
.zerofill __DATA,__common,_harimau,40,3
	.section	__TEXT,__cstring,cstring_literals
l_.str:                                 ; @.str
	.asciz	"Ingat"

l_.str.1:                               ; @.str.1
	.asciz	"Harimau"

l_.str.2:                               ; @.str.2
	.asciz	"Monster Data"

l_.str.3:                               ; @.str.3
	.asciz	"Name: "

l_.str.4:                               ; @.str.4
	.asciz	"Level: "

l_.str.5:                               ; @.str.5
	.asciz	"HP: "

l_.str.6:                               ; @.str.6
	.asciz	"Power: "

l_.str.7:                               ; @.str.7
	.asciz	" ------ "

	.section	__DATA,__mod_init_func,mod_init_funcs
	.p2align	3
	.quad	__GLOBAL__sub_I_lab10.cpp
.subsections_via_symbols
